

Microchip MPLAB XC8 Assembler V2.20 build 20200408173844 
                                                                                               Wed Jun 10 18:46:29 2020

Microchip MPLAB XC8 C Compiler v2.20 (Free license) build 20200408173844 Og1 
     1                           	processor	16F877A
     2                           	pagewidth 120
     3                           	opt	flic
     4                           	psect	idataBANK0,global,class=CODE,delta=2,noexec
     5                           	psect	cinit,global,class=CODE,merge=1,delta=2
     6                           	psect	bssCOMMON,global,class=COMMON,space=1,delta=1,noexec
     7                           	psect	bssBANK0,global,class=BANK0,space=1,delta=1,noexec
     8                           	psect	dataBANK0,global,class=BANK0,space=1,delta=1,noexec
     9                           	psect	inittext,global,class=CODE,delta=2
    10                           	psect	cstackCOMMON,global,class=COMMON,space=1,delta=1,noexec
    11                           	psect	cstackBANK0,global,class=BANK0,space=1,delta=1,noexec
    12                           	psect	maintext,global,class=CODE,split=1,delta=2
    13                           	psect	text1,local,class=CODE,merge=1,delta=2
    14                           	psect	text2,local,class=CODE,merge=1,delta=2
    15                           	psect	text3,local,class=CODE,merge=1,delta=2
    16                           	psect	text4,local,class=CODE,merge=1,delta=2
    17                           	psect	text5,local,class=CODE,merge=1,delta=2,group=1
    18                           	psect	text6,local,class=CODE,merge=1,delta=2,group=1
    19                           	psect	text7,local,class=CODE,merge=1,delta=2
    20                           	psect	intentry,global,class=CODE,delta=2
    21                           	psect	text8,local,class=CODE,merge=1,delta=2
    22                           	psect	text9,local,class=CODE,merge=1,delta=2
    23                           	psect	text10,local,class=CODE,merge=1,delta=2,group=1
    24                           	psect	config,global,abs,ovrld,class=CONFIG,space=4,delta=2,noexec
    25                           	dabs	1,0x7E,2
    26  0000                     
    27                           ; Version 2.20
    28                           ; Generated 12/02/2020 GMT
    29                           ; 
    30                           ; Copyright © 2020, Microchip Technology Inc. and its subsidiaries ("Microchip")
    31                           ; All rights reserved.
    32                           ; 
    33                           ; This software is developed by Microchip Technology Inc. and its subsidiaries ("Microch
      +                          ip").
    34                           ; 
    35                           ; Redistribution and use in source and binary forms, with or without modification, are
    36                           ; permitted provided that the following conditions are met:
    37                           ; 
    38                           ;     1. Redistributions of source code must retain the above copyright notice, this lis
      +                          t of
    39                           ;        conditions and the following disclaimer.
    40                           ; 
    41                           ;     2. Redistributions in binary form must reproduce the above copyright notice, this 
      +                          list
    42                           ;        of conditions and the following disclaimer in the documentation and/or other
    43                           ;        materials provided with the distribution.
    44                           ; 
    45                           ;     3. Microchip's name may not be used to endorse or promote products derived from th
      +                          is
    46                           ;        software without specific prior written permission.
    47                           ; 
    48                           ; THIS SOFTWARE IS PROVIDED BY MICROCHIP "AS IS" AND ANY EXPRESS OR IMPLIED WARRANTIES,
    49                           ; INCLUDING, BUT NOT LIMITED TO, THE IMPLIED WARRANTIES OF MERCHANTABILITY AND FITNESS F
      +                          OR
    50                           ; PURPOSE ARE DISCLAIMED.  IN NO EVENT SHALL MICROCHIP BE LIABLE FOR ANY DIRECT, INDIREC
      +                          T,
    51                           ; INCIDENTAL, SPECIAL, EXEMPLARY, OR CONSEQUENTIAL DAMAGES (INCLUDING BUT NOT LIMITED TO
    52                           ; PROCUREMENT OF SUBSTITUTE GOODS OR SERVICES; LOSS OF USE, DATA OR PROFITS; OR BUSINESS
    53                           ; INTERRUPTION) HOWSOEVER CAUSED AND ON ANY THEORY OF LIABILITY, WHETHER IN CONTRACT, ST
      +                          RICT
    54                           ; LIABILITY, OR TORT (INCLUDING NEGLIGENCE OR OTHERWISE) ARISING IN ANY WAY OUT OF THE U
      +                          SE OF
    55                           ; THIS SOFTWARE, EVEN IF ADVISED OF THE POSSIBILITY OF SUCH DAMAGE.
    56                           ; 
    57                           ; 
    58                           ; Code-generator required, PIC16F877A Definitions
    59                           ; 
    60                           ; SFR Addresses
    61  0000                     	;# 
    62  0001                     	;# 
    63  0002                     	;# 
    64  0003                     	;# 
    65  0004                     	;# 
    66  0005                     	;# 
    67  0006                     	;# 
    68  0007                     	;# 
    69  0008                     	;# 
    70  0009                     	;# 
    71  000A                     	;# 
    72  000B                     	;# 
    73  000C                     	;# 
    74  000D                     	;# 
    75  000E                     	;# 
    76  000E                     	;# 
    77  000F                     	;# 
    78  0010                     	;# 
    79  0011                     	;# 
    80  0012                     	;# 
    81  0013                     	;# 
    82  0014                     	;# 
    83  0015                     	;# 
    84  0015                     	;# 
    85  0016                     	;# 
    86  0017                     	;# 
    87  0018                     	;# 
    88  0019                     	;# 
    89  001A                     	;# 
    90  001B                     	;# 
    91  001B                     	;# 
    92  001C                     	;# 
    93  001D                     	;# 
    94  001E                     	;# 
    95  001F                     	;# 
    96  0081                     	;# 
    97  0085                     	;# 
    98  0086                     	;# 
    99  0087                     	;# 
   100  0088                     	;# 
   101  0089                     	;# 
   102  008C                     	;# 
   103  008D                     	;# 
   104  008E                     	;# 
   105  0091                     	;# 
   106  0092                     	;# 
   107  0093                     	;# 
   108  0094                     	;# 
   109  0098                     	;# 
   110  0099                     	;# 
   111  009C                     	;# 
   112  009D                     	;# 
   113  009E                     	;# 
   114  009F                     	;# 
   115  010C                     	;# 
   116  010D                     	;# 
   117  010E                     	;# 
   118  010F                     	;# 
   119  018C                     	;# 
   120  018D                     	;# 
   121  0000                     	;# 
   122  0001                     	;# 
   123  0002                     	;# 
   124  0003                     	;# 
   125  0004                     	;# 
   126  0005                     	;# 
   127  0006                     	;# 
   128  0007                     	;# 
   129  0008                     	;# 
   130  0009                     	;# 
   131  000A                     	;# 
   132  000B                     	;# 
   133  000C                     	;# 
   134  000D                     	;# 
   135  000E                     	;# 
   136  000E                     	;# 
   137  000F                     	;# 
   138  0010                     	;# 
   139  0011                     	;# 
   140  0012                     	;# 
   141  0013                     	;# 
   142  0014                     	;# 
   143  0015                     	;# 
   144  0015                     	;# 
   145  0016                     	;# 
   146  0017                     	;# 
   147  0018                     	;# 
   148  0019                     	;# 
   149  001A                     	;# 
   150  001B                     	;# 
   151  001B                     	;# 
   152  001C                     	;# 
   153  001D                     	;# 
   154  001E                     	;# 
   155  001F                     	;# 
   156  0081                     	;# 
   157  0085                     	;# 
   158  0086                     	;# 
   159  0087                     	;# 
   160  0088                     	;# 
   161  0089                     	;# 
   162  008C                     	;# 
   163  008D                     	;# 
   164  008E                     	;# 
   165  0091                     	;# 
   166  0092                     	;# 
   167  0093                     	;# 
   168  0094                     	;# 
   169  0098                     	;# 
   170  0099                     	;# 
   171  009C                     	;# 
   172  009D                     	;# 
   173  009E                     	;# 
   174  009F                     	;# 
   175  010C                     	;# 
   176  010D                     	;# 
   177  010E                     	;# 
   178  010F                     	;# 
   179  018C                     	;# 
   180  018D                     	;# 
   181  0000                     	;# 
   182  0001                     	;# 
   183  0002                     	;# 
   184  0003                     	;# 
   185  0004                     	;# 
   186  0005                     	;# 
   187  0006                     	;# 
   188  0007                     	;# 
   189  0008                     	;# 
   190  0009                     	;# 
   191  000A                     	;# 
   192  000B                     	;# 
   193  000C                     	;# 
   194  000D                     	;# 
   195  000E                     	;# 
   196  000E                     	;# 
   197  000F                     	;# 
   198  0010                     	;# 
   199  0011                     	;# 
   200  0012                     	;# 
   201  0013                     	;# 
   202  0014                     	;# 
   203  0015                     	;# 
   204  0015                     	;# 
   205  0016                     	;# 
   206  0017                     	;# 
   207  0018                     	;# 
   208  0019                     	;# 
   209  001A                     	;# 
   210  001B                     	;# 
   211  001B                     	;# 
   212  001C                     	;# 
   213  001D                     	;# 
   214  001E                     	;# 
   215  001F                     	;# 
   216  0081                     	;# 
   217  0085                     	;# 
   218  0086                     	;# 
   219  0087                     	;# 
   220  0088                     	;# 
   221  0089                     	;# 
   222  008C                     	;# 
   223  008D                     	;# 
   224  008E                     	;# 
   225  0091                     	;# 
   226  0092                     	;# 
   227  0093                     	;# 
   228  0094                     	;# 
   229  0098                     	;# 
   230  0099                     	;# 
   231  009C                     	;# 
   232  009D                     	;# 
   233  009E                     	;# 
   234  009F                     	;# 
   235  010C                     	;# 
   236  010D                     	;# 
   237  010E                     	;# 
   238  010F                     	;# 
   239  018C                     	;# 
   240  018D                     	;# 
   241  0000                     	;# 
   242  0001                     	;# 
   243  0002                     	;# 
   244  0003                     	;# 
   245  0004                     	;# 
   246  0005                     	;# 
   247  0006                     	;# 
   248  0007                     	;# 
   249  0008                     	;# 
   250  0009                     	;# 
   251  000A                     	;# 
   252  000B                     	;# 
   253  000C                     	;# 
   254  000D                     	;# 
   255  000E                     	;# 
   256  000E                     	;# 
   257  000F                     	;# 
   258  0010                     	;# 
   259  0011                     	;# 
   260  0012                     	;# 
   261  0013                     	;# 
   262  0014                     	;# 
   263  0015                     	;# 
   264  0015                     	;# 
   265  0016                     	;# 
   266  0017                     	;# 
   267  0018                     	;# 
   268  0019                     	;# 
   269  001A                     	;# 
   270  001B                     	;# 
   271  001B                     	;# 
   272  001C                     	;# 
   273  001D                     	;# 
   274  001E                     	;# 
   275  001F                     	;# 
   276  0081                     	;# 
   277  0085                     	;# 
   278  0086                     	;# 
   279  0087                     	;# 
   280  0088                     	;# 
   281  0089                     	;# 
   282  008C                     	;# 
   283  008D                     	;# 
   284  008E                     	;# 
   285  0091                     	;# 
   286  0092                     	;# 
   287  0093                     	;# 
   288  0094                     	;# 
   289  0098                     	;# 
   290  0099                     	;# 
   291  009C                     	;# 
   292  009D                     	;# 
   293  009E                     	;# 
   294  009F                     	;# 
   295  010C                     	;# 
   296  010D                     	;# 
   297  010E                     	;# 
   298  010F                     	;# 
   299  018C                     	;# 
   300  018D                     	;# 
   301  0000                     	;# 
   302  0001                     	;# 
   303  0002                     	;# 
   304  0003                     	;# 
   305  0004                     	;# 
   306  0005                     	;# 
   307  0006                     	;# 
   308  0007                     	;# 
   309  0008                     	;# 
   310  0009                     	;# 
   311  000A                     	;# 
   312  000B                     	;# 
   313  000C                     	;# 
   314  000D                     	;# 
   315  000E                     	;# 
   316  000E                     	;# 
   317  000F                     	;# 
   318  0010                     	;# 
   319  0011                     	;# 
   320  0012                     	;# 
   321  0013                     	;# 
   322  0014                     	;# 
   323  0015                     	;# 
   324  0015                     	;# 
   325  0016                     	;# 
   326  0017                     	;# 
   327  0018                     	;# 
   328  0019                     	;# 
   329  001A                     	;# 
   330  001B                     	;# 
   331  001B                     	;# 
   332  001C                     	;# 
   333  001D                     	;# 
   334  001E                     	;# 
   335  001F                     	;# 
   336  0081                     	;# 
   337  0085                     	;# 
   338  0086                     	;# 
   339  0087                     	;# 
   340  0088                     	;# 
   341  0089                     	;# 
   342  008C                     	;# 
   343  008D                     	;# 
   344  008E                     	;# 
   345  0091                     	;# 
   346  0092                     	;# 
   347  0093                     	;# 
   348  0094                     	;# 
   349  0098                     	;# 
   350  0099                     	;# 
   351  009C                     	;# 
   352  009D                     	;# 
   353  009E                     	;# 
   354  009F                     	;# 
   355  010C                     	;# 
   356  010D                     	;# 
   357  010E                     	;# 
   358  010F                     	;# 
   359  018C                     	;# 
   360  018D                     	;# 
   361                           
   362                           	psect	idataBANK0
   363  0385                     __pidataBANK0:
   364                           
   365                           ;initializer for _digits
   366  0385  343F               	retlw	63
   367  0386  3406               	retlw	6
   368  0387  345B               	retlw	91
   369  0388  344F               	retlw	79
   370  0389  3466               	retlw	102
   371  038A  346D               	retlw	109
   372  038B  347D               	retlw	125
   373  038C  3407               	retlw	7
   374  038D  347F               	retlw	127
   375  038E  346F               	retlw	111
   376                           
   377                           ;initializer for _hour
   378  038F  340C               	retlw	12
   379  0390  3400               	retlw	0
   380  0008                     _PORTD	set	8
   381  0005                     _PORTA	set	5
   382  0092                     _TMR2ON	set	146
   383  0091                     _T2CKPS1	set	145
   384  0090                     _T2CKPS0	set	144
   385  0061                     _TMR2IF	set	97
   386  005F                     _GIE	set	95
   387  005E                     _PEIE	set	94
   388  0092                     _PR2	set	146
   389  0085                     _TRISA	set	133
   390  0088                     _TRISD	set	136
   391  0461                     _TMR2IE	set	1121
   392                           
   393                           	psect	cinit
   394  0015                     start_initialization:	
   395                           ; #config settings
   396                           
   397  0015                     __initialization:
   398                           
   399                           ; Initialize objects allocated to BANK0
   400  0015  1383               	bcf	3,7	;select IRP bank0
   401  0016  303E               	movlw	low (__pdataBANK0+12)
   402  0017  00FD               	movwf	btemp+-1
   403  0018  3003               	movlw	high __pidataBANK0
   404  0019  00FE               	movwf	btemp
   405  001A  3085               	movlw	low __pidataBANK0
   406  001B  00FF               	movwf	btemp+1
   407  001C  3032               	movlw	low __pdataBANK0
   408  001D  0084               	movwf	4
   409  001E  120A  118A  2369  120A  118A  	fcall	init_ram0
   410                           
   411                           ; Clear objects allocated to BANK0
   412  0023  01BE               	clrf	__pbssBANK0& (0+127)
   413  0024  01BF               	clrf	(__pbssBANK0+1)& (0+127)
   414  0025  01C0               	clrf	(__pbssBANK0+2)& (0+127)
   415  0026  01C1               	clrf	(__pbssBANK0+3)& (0+127)
   416  0027  01C2               	clrf	(__pbssBANK0+4)& (0+127)
   417  0028  01C3               	clrf	(__pbssBANK0+5)& (0+127)
   418  0029  01C4               	clrf	(__pbssBANK0+6)& (0+127)
   419  002A  01C5               	clrf	(__pbssBANK0+7)& (0+127)
   420  002B  01C6               	clrf	(__pbssBANK0+8)& (0+127)
   421  002C  01C7               	clrf	(__pbssBANK0+9)& (0+127)
   422                           
   423                           ; Clear objects allocated to COMMON
   424  002D  01FC               	clrf	__pbssCOMMON& (0+127)
   425  002E  01FD               	clrf	(__pbssCOMMON+1)& (0+127)
   426  002F                     end_of_initialization:	
   427                           ;End of C runtime variable initialization code
   428                           
   429  002F                     __end_of__initialization:
   430  002F  0183               	clrf	3
   431  0030  120A  118A  294A   	ljmp	_main	;jump to C main() function
   432                           
   433                           	psect	bssCOMMON
   434  007C                     __pbssCOMMON:
   435  007C                     _flag:
   436  007C                     	ds	2
   437                           
   438                           	psect	bssBANK0
   439  003E                     __pbssBANK0:
   440  003E                     isr@count:
   441  003E                     	ds	4
   442  0042                     _minute:
   443  0042                     	ds	2
   444  0044                     _ssd:
   445  0044                     	ds	4
   446                           
   447                           	psect	dataBANK0
   448  0032                     __pdataBANK0:
   449  0032                     _digits:
   450  0032                     	ds	10
   451  003C                     _hour:
   452  003C                     	ds	2
   453                           
   454                           	psect	inittext
   455  0365                     init_fetch0:	
   456                           ;	Called with low address in FSR and high address in W
   457                           
   458  0365  087E               	movf	btemp,w
   459  0366  008A               	movwf	10
   460  0367  087F               	movf	btemp+1,w
   461  0368  0082               	movwf	2
   462  0369                     init_ram0:	
   463                           ;Called with:
   464                           ;	high address of idata address in btemp 
   465                           ;	low address of idata address in btemp+1 
   466                           ;	low address of data in FSR
   467                           ;	high address + 1 of data in btemp-1
   468                           
   469  0369  120A  118A  2365  120A  118A  	fcall	init_fetch0
   470  036E  0080               	movwf	0
   471  036F  0A84               	incf	4,f
   472  0370  0804               	movf	4,w
   473  0371  067D               	xorwf	btemp+-1,w
   474  0372  1903               	btfsc	3,2
   475  0373  3400               	retlw	0
   476  0374  0AFF               	incf	btemp+1,f
   477  0375  1903               	btfsc	3,2
   478  0376  0AFE               	incf	btemp,f
   479  0377  2B69               	goto	init_ram0
   480                           
   481                           	psect	cstackCOMMON
   482  0070                     __pcstackCOMMON:
   483  0070                     ?_init_ssd:
   484  0070                     ?_init_timer2:	
   485                           ; 1 bytes @ 0x0
   486                           
   487  0070                     ?_display:	
   488                           ; 1 bytes @ 0x0
   489                           
   490  0070                     ?_init_config:	
   491                           ; 1 bytes @ 0x0
   492                           
   493  0070                     ?_main:	
   494                           ; 1 bytes @ 0x0
   495                           
   496  0070                     ?_isr:	
   497                           ; 1 bytes @ 0x0
   498                           
   499  0070                     ?i1___lwdiv:	
   500                           ; 1 bytes @ 0x0
   501                           
   502  0070                     ?___llmod:	
   503                           ; 2 bytes @ 0x0
   504                           
   505  0070                     i1___lwdiv@divisor:	
   506                           ; 4 bytes @ 0x0
   507                           
   508  0070                     ___llmod@divisor:	
   509                           ; 2 bytes @ 0x0
   510                           
   511                           
   512                           ; 4 bytes @ 0x0
   513  0070                     	ds	2
   514  0072                     i1___lwdiv@dividend:
   515                           
   516                           ; 2 bytes @ 0x2
   517  0072                     	ds	2
   518  0074                     ??i1___lwdiv:
   519  0074                     i1___lwdiv@quotient:	
   520                           ; 1 bytes @ 0x4
   521                           
   522  0074                     ___llmod@dividend:	
   523                           ; 2 bytes @ 0x4
   524                           
   525                           
   526                           ; 4 bytes @ 0x4
   527  0074                     	ds	2
   528  0076                     i1___lwdiv@counter:
   529                           
   530                           ; 1 bytes @ 0x6
   531  0076                     	ds	1
   532  0077                     ?i1___lwmod:
   533  0077                     i1___lwmod@divisor:	
   534                           ; 2 bytes @ 0x7
   535                           
   536                           
   537                           ; 2 bytes @ 0x7
   538  0077                     	ds	1
   539  0078                     ??___llmod:
   540                           
   541                           ; 1 bytes @ 0x8
   542  0078                     	ds	1
   543  0079                     ___llmod@counter:
   544  0079                     i1___lwmod@dividend:	
   545                           ; 1 bytes @ 0x9
   546                           
   547                           
   548                           ; 2 bytes @ 0x9
   549  0079                     	ds	2
   550  007B                     ??i1___lwmod:
   551  007B                     i1___lwmod@counter:	
   552                           ; 1 bytes @ 0xB
   553                           
   554                           
   555                           ; 1 bytes @ 0xB
   556  007B                     	ds	1
   557                           
   558                           	psect	cstackBANK0
   559  0020                     __pcstackBANK0:
   560  0020                     ??_isr:
   561                           
   562                           ; 1 bytes @ 0x0
   563  0020                     	ds	6
   564  0026                     ??_init_ssd:
   565  0026                     ??_init_timer2:	
   566                           ; 1 bytes @ 0x6
   567                           
   568  0026                     ??_display:	
   569                           ; 1 bytes @ 0x6
   570                           
   571  0026                     ??_init_config:	
   572                           ; 1 bytes @ 0x6
   573                           
   574  0026                     ?___lwdiv:	
   575                           ; 1 bytes @ 0x6
   576                           
   577  0026                     ___lwdiv@divisor:	
   578                           ; 2 bytes @ 0x6
   579                           
   580                           
   581                           ; 2 bytes @ 0x6
   582  0026                     	ds	1
   583  0027                     display@wait:
   584                           
   585                           ; 2 bytes @ 0x7
   586  0027                     	ds	1
   587  0028                     ___lwdiv@dividend:
   588                           
   589                           ; 2 bytes @ 0x8
   590  0028                     	ds	1
   591  0029                     display@data:
   592                           
   593                           ; 1 bytes @ 0x9
   594  0029                     	ds	1
   595  002A                     ??___lwdiv:
   596  002A                     display@digit:	
   597                           ; 1 bytes @ 0xA
   598                           
   599  002A                     ___lwdiv@quotient:	
   600                           ; 1 bytes @ 0xA
   601                           
   602                           
   603                           ; 2 bytes @ 0xA
   604  002A                     	ds	2
   605  002C                     ___lwdiv@counter:
   606                           
   607                           ; 1 bytes @ 0xC
   608  002C                     	ds	1
   609  002D                     ?___lwmod:
   610  002D                     ___lwmod@divisor:	
   611                           ; 2 bytes @ 0xD
   612                           
   613                           
   614                           ; 2 bytes @ 0xD
   615  002D                     	ds	2
   616  002F                     ___lwmod@dividend:
   617                           
   618                           ; 2 bytes @ 0xF
   619  002F                     	ds	2
   620  0031                     ??___lwmod:
   621  0031                     ___lwmod@counter:	
   622                           ; 1 bytes @ 0x11
   623                           
   624                           
   625                           ; 1 bytes @ 0x11
   626  0031                     	ds	1
   627  0032                     ??_main:
   628                           
   629                           	psect	maintext
   630  014A                     __pmaintext:	
   631                           ; 1 bytes @ 0x12
   632 ;;
   633 ;;Main: autosize = 0, tempsize = 0, incstack = 0, save=0
   634 ;;
   635 ;; *************** function _main *****************
   636 ;; Defined at:
   637 ;;		line 19 in file "main.c"
   638 ;; Parameters:    Size  Location     Type
   639 ;;		None
   640 ;; Auto vars:     Size  Location     Type
   641 ;;		None
   642 ;; Return value:  Size  Location     Type
   643 ;;                  1    wreg      void 
   644 ;; Registers used:
   645 ;;		wreg, fsr0l, fsr0h, status,2, status,0, btemp+1, pclath, cstack
   646 ;; Tracked objects:
   647 ;;		On entry : B00/0
   648 ;;		On exit  : 0/0
   649 ;;		Unchanged: 0/0
   650 ;; Data sizes:     COMMON   BANK0   BANK1   BANK3   BANK2
   651 ;;      Params:         0       0       0       0       0
   652 ;;      Locals:         0       0       0       0       0
   653 ;;      Temps:          0       0       0       0       0
   654 ;;      Totals:         0       0       0       0       0
   655 ;;Total ram usage:        0 bytes
   656 ;; Hardware stack levels required when called:    4
   657 ;; This function calls:
   658 ;;		___lwdiv
   659 ;;		___lwmod
   660 ;;		_display
   661 ;;		_init_config
   662 ;;		_init_timer2
   663 ;; This function is called by:
   664 ;;		Startup code after reset
   665 ;; This function uses a non-reentrant model
   666 ;;
   667                           
   668                           
   669                           ;psect for function _main
   670  014A                     _main:
   671  014A                     l1044:	
   672                           ;incstack = 0
   673                           ; Regs used in _main: [wreg-fsr0h+status,2+status,0+btemp+1+pclath+cstack]
   674                           
   675                           
   676                           ;main.c: 21:     display(ssd);
   677  014A  120A  118A  239D  120A  118A  	fcall	_init_config
   678  014F                     l1046:
   679                           
   680                           ;main.c: 24: }
   681  014F  300A               	movlw	10
   682  0150  1283               	bcf	3,5	;RP0=0, select bank0
   683  0151  1303               	bcf	3,6	;RP1=0, select bank0
   684  0152  00AD               	movwf	___lwmod@divisor
   685  0153  3000               	movlw	0
   686  0154  00AE               	movwf	___lwmod@divisor+1
   687  0155  300A               	movlw	10
   688  0156  00A6               	movwf	___lwdiv@divisor
   689  0157  3000               	movlw	0
   690  0158  00A7               	movwf	___lwdiv@divisor+1
   691  0159  083D               	movf	_hour+1,w
   692  015A  00A9               	movwf	___lwdiv@dividend+1
   693  015B  083C               	movf	_hour,w
   694  015C  00A8               	movwf	___lwdiv@dividend
   695  015D  120A  118A  222F  120A  118A  	fcall	___lwdiv
   696  0162  1283               	bcf	3,5	;RP0=0, select bank0
   697  0163  1303               	bcf	3,6	;RP1=0, select bank0
   698  0164  0827               	movf	?___lwdiv+1,w
   699  0165  00B0               	movwf	___lwmod@dividend+1
   700  0166  0826               	movf	?___lwdiv,w
   701  0167  00AF               	movwf	___lwmod@dividend
   702  0168  120A  118A  22B9  120A  118A  	fcall	___lwmod
   703  016D  1283               	bcf	3,5	;RP0=0, select bank0
   704  016E  1303               	bcf	3,6	;RP1=0, select bank0
   705  016F  082D               	movf	?___lwmod,w
   706  0170  3E32               	addlw	(low (_digits| 0))& (0+255)
   707  0171  0084               	movwf	4
   708  0172  1383               	bcf	3,7	;select IRP bank0
   709  0173  0800               	movf	0,w
   710  0174  00FF               	movwf	btemp+1
   711  0175  087F               	movf	btemp+1,w
   712  0176  00C4               	movwf	_ssd
   713  0177                     l1048:
   714  0177  300A               	movlw	10
   715  0178  00AD               	movwf	___lwmod@divisor
   716  0179  3000               	movlw	0
   717  017A  00AE               	movwf	___lwmod@divisor+1
   718  017B  083D               	movf	_hour+1,w
   719  017C  00B0               	movwf	___lwmod@dividend+1
   720  017D  083C               	movf	_hour,w
   721  017E  00AF               	movwf	___lwmod@dividend
   722  017F  120A  118A  22B9  120A  118A  	fcall	___lwmod
   723  0184  1283               	bcf	3,5	;RP0=0, select bank0
   724  0185  1303               	bcf	3,6	;RP1=0, select bank0
   725  0186  082D               	movf	?___lwmod,w
   726  0187  3E32               	addlw	(low (_digits| 0))& (0+255)
   727  0188  0084               	movwf	4
   728  0189  1383               	bcf	3,7	;select IRP bank0
   729  018A  0800               	movf	0,w
   730  018B  3880               	iorlw	128
   731  018C  00FF               	movwf	btemp+1
   732  018D  087F               	movf	btemp+1,w
   733  018E  00C5               	movwf	_ssd+1
   734  018F                     l1050:
   735  018F  300A               	movlw	10
   736  0190  00AD               	movwf	___lwmod@divisor
   737  0191  3000               	movlw	0
   738  0192  00AE               	movwf	___lwmod@divisor+1
   739  0193  300A               	movlw	10
   740  0194  00A6               	movwf	___lwdiv@divisor
   741  0195  3000               	movlw	0
   742  0196  00A7               	movwf	___lwdiv@divisor+1
   743  0197  0843               	movf	_minute+1,w
   744  0198  00A9               	movwf	___lwdiv@dividend+1
   745  0199  0842               	movf	_minute,w
   746  019A  00A8               	movwf	___lwdiv@dividend
   747  019B  120A  118A  222F  120A  118A  	fcall	___lwdiv
   748  01A0  1283               	bcf	3,5	;RP0=0, select bank0
   749  01A1  1303               	bcf	3,6	;RP1=0, select bank0
   750  01A2  0827               	movf	?___lwdiv+1,w
   751  01A3  00B0               	movwf	___lwmod@dividend+1
   752  01A4  0826               	movf	?___lwdiv,w
   753  01A5  00AF               	movwf	___lwmod@dividend
   754  01A6  120A  118A  22B9  120A  118A  	fcall	___lwmod
   755  01AB  1283               	bcf	3,5	;RP0=0, select bank0
   756  01AC  1303               	bcf	3,6	;RP1=0, select bank0
   757  01AD  082D               	movf	?___lwmod,w
   758  01AE  3E32               	addlw	(low (_digits| 0))& (0+255)
   759  01AF  0084               	movwf	4
   760  01B0  1383               	bcf	3,7	;select IRP bank0
   761  01B1  0800               	movf	0,w
   762  01B2  00FF               	movwf	btemp+1
   763  01B3  087F               	movf	btemp+1,w
   764  01B4  00C6               	movwf	_ssd+2
   765  01B5                     l1052:
   766  01B5  300A               	movlw	10
   767  01B6  00AD               	movwf	___lwmod@divisor
   768  01B7  3000               	movlw	0
   769  01B8  00AE               	movwf	___lwmod@divisor+1
   770  01B9  0843               	movf	_minute+1,w
   771  01BA  00B0               	movwf	___lwmod@dividend+1
   772  01BB  0842               	movf	_minute,w
   773  01BC  00AF               	movwf	___lwmod@dividend
   774  01BD  120A  118A  22B9  120A  118A  	fcall	___lwmod
   775  01C2  1283               	bcf	3,5	;RP0=0, select bank0
   776  01C3  1303               	bcf	3,6	;RP1=0, select bank0
   777  01C4  082D               	movf	?___lwmod,w
   778  01C5  3E32               	addlw	(low (_digits| 0))& (0+255)
   779  01C6  0084               	movwf	4
   780  01C7  1383               	bcf	3,7	;select IRP bank0
   781  01C8  0800               	movf	0,w
   782  01C9  00FF               	movwf	btemp+1
   783  01CA  087F               	movf	btemp+1,w
   784  01CB  00C7               	movwf	_ssd+3
   785  01CC  120A  118A  2378  120A  118A  	fcall	_init_timer2
   786  01D1                     l1054:
   787  01D1  3044               	movlw	(low (_ssd| 0))& (0+255)
   788  01D2  120A  118A  232F  120A  118A  	fcall	_display
   789  01D7  29D1               	goto	l1054
   790  01D8  120A  118A  2812   	ljmp	start
   791  01DB                     __end_of_main:
   792                           
   793                           	psect	text1
   794  0378                     __ptext1:	
   795 ;; *************** function _init_timer2 *****************
   796 ;; Defined at:
   797 ;;		line 3 in file "timers.c"
   798 ;; Parameters:    Size  Location     Type
   799 ;;		None
   800 ;; Auto vars:     Size  Location     Type
   801 ;;		None
   802 ;; Return value:  Size  Location     Type
   803 ;;                  1    wreg      void 
   804 ;; Registers used:
   805 ;;		wreg
   806 ;; Tracked objects:
   807 ;;		On entry : 0/0
   808 ;;		On exit  : 0/0
   809 ;;		Unchanged: 0/0
   810 ;; Data sizes:     COMMON   BANK0   BANK1   BANK3   BANK2
   811 ;;      Params:         0       0       0       0       0
   812 ;;      Locals:         0       0       0       0       0
   813 ;;      Temps:          0       0       0       0       0
   814 ;;      Totals:         0       0       0       0       0
   815 ;;Total ram usage:        0 bytes
   816 ;; Hardware stack levels used:    1
   817 ;; Hardware stack levels required when called:    2
   818 ;; This function calls:
   819 ;;		Nothing
   820 ;; This function is called by:
   821 ;;		_main
   822 ;; This function uses a non-reentrant model
   823 ;;
   824                           
   825                           
   826                           ;psect for function _init_timer2
   827  0378                     _init_timer2:
   828  0378                     l900:	
   829                           ;incstack = 0
   830                           ; Regs used in _init_timer2: [wreg]
   831                           
   832                           
   833                           ;timers.c: 6:     T2CKPS0=1;
   834  0378  1283               	bcf	3,5	;RP0=0, select bank0
   835  0379  1303               	bcf	3,6	;RP1=0, select bank0
   836  037A  1412               	bsf	18,0	;volatile
   837                           
   838                           ;timers.c: 7:     T2CKPS1=1;
   839  037B  1492               	bsf	18,1	;volatile
   840  037C                     l902:
   841                           
   842                           ;timers.c: 9:     PR2=250;
   843  037C  30FA               	movlw	250
   844  037D  1683               	bsf	3,5	;RP0=1, select bank1
   845  037E  1303               	bcf	3,6	;RP1=0, select bank1
   846  037F  0092               	movwf	18	;volatile
   847  0380                     l904:
   848                           
   849                           ;timers.c: 11:     TMR2IE=1;
   850  0380  148C               	bsf	12,1	;volatile
   851  0381                     l906:
   852                           
   853                           ;timers.c: 12:     TMR2ON=1;
   854  0381  1283               	bcf	3,5	;RP0=0, select bank0
   855  0382  1303               	bcf	3,6	;RP1=0, select bank0
   856  0383  1512               	bsf	18,2	;volatile
   857  0384                     l94:
   858  0384  0008               	return
   859  0385                     __end_of_init_timer2:
   860                           
   861                           	psect	text2
   862  039D                     __ptext2:	
   863 ;; *************** function _init_config *****************
   864 ;; Defined at:
   865 ;;		line 11 in file "main.c"
   866 ;; Parameters:    Size  Location     Type
   867 ;;		None
   868 ;; Auto vars:     Size  Location     Type
   869 ;;		None
   870 ;; Return value:  Size  Location     Type
   871 ;;                  1    wreg      void 
   872 ;; Registers used:
   873 ;;		wreg, status,2, status,0, pclath, cstack
   874 ;; Tracked objects:
   875 ;;		On entry : 0/0
   876 ;;		On exit  : 0/0
   877 ;;		Unchanged: 0/0
   878 ;; Data sizes:     COMMON   BANK0   BANK1   BANK3   BANK2
   879 ;;      Params:         0       0       0       0       0
   880 ;;      Locals:         0       0       0       0       0
   881 ;;      Temps:          0       0       0       0       0
   882 ;;      Totals:         0       0       0       0       0
   883 ;;Total ram usage:        0 bytes
   884 ;; Hardware stack levels used:    1
   885 ;; Hardware stack levels required when called:    3
   886 ;; This function calls:
   887 ;;		_init_ssd
   888 ;; This function is called by:
   889 ;;		_main
   890 ;; This function uses a non-reentrant model
   891 ;;
   892                           
   893                           
   894                           ;psect for function _init_config
   895  039D                     _init_config:
   896  039D                     l894:	
   897                           ;incstack = 0
   898                           ; Regs used in _init_config: [wreg+status,2+status,0+pclath+cstack]
   899                           
   900                           
   901                           ;main.c: 13:     ssd[0] = digits[(hour / 10) % 10];
   902  039D  120A  118A  2391  120A  118A  	fcall	_init_ssd
   903  03A2                     l896:
   904                           
   905                           ;main.c: 15:     ssd[2] = digits[(minute / 10) % 10];
   906  03A2  170B               	bsf	11,6	;volatile
   907  03A3                     l898:
   908                           
   909                           ;main.c: 16:     ssd[3] = digits[(minute / 1) % 10];
   910  03A3  178B               	bsf	11,7	;volatile
   911  03A4                     l23:
   912  03A4  0008               	return
   913  03A5                     __end_of_init_config:
   914                           
   915                           	psect	text3
   916  0391                     __ptext3:	
   917 ;; *************** function _init_ssd *****************
   918 ;; Defined at:
   919 ;;		line 4 in file "ssd.c"
   920 ;; Parameters:    Size  Location     Type
   921 ;;		None
   922 ;; Auto vars:     Size  Location     Type
   923 ;;		None
   924 ;; Return value:  Size  Location     Type
   925 ;;                  1    wreg      void 
   926 ;; Registers used:
   927 ;;		wreg, status,2
   928 ;; Tracked objects:
   929 ;;		On entry : 0/0
   930 ;;		On exit  : 0/0
   931 ;;		Unchanged: 0/0
   932 ;; Data sizes:     COMMON   BANK0   BANK1   BANK3   BANK2
   933 ;;      Params:         0       0       0       0       0
   934 ;;      Locals:         0       0       0       0       0
   935 ;;      Temps:          0       0       0       0       0
   936 ;;      Totals:         0       0       0       0       0
   937 ;;Total ram usage:        0 bytes
   938 ;; Hardware stack levels used:    1
   939 ;; Hardware stack levels required when called:    2
   940 ;; This function calls:
   941 ;;		Nothing
   942 ;; This function is called by:
   943 ;;		_init_config
   944 ;; This function uses a non-reentrant model
   945 ;;
   946                           
   947                           
   948                           ;psect for function _init_ssd
   949  0391                     _init_ssd:
   950  0391                     l888:	
   951                           ;incstack = 0
   952                           ; Regs used in _init_ssd: [wreg+status,2]
   953                           
   954                           
   955                           ;ssd.c: 7:     TRISD = 0x00;
   956  0391  1683               	bsf	3,5	;RP0=1, select bank1
   957  0392  1303               	bcf	3,6	;RP1=0, select bank1
   958  0393  0188               	clrf	8	;volatile
   959  0394                     l890:
   960                           
   961                           ;ssd.c: 10:     TRISA = TRISA & 0xC3;
   962  0394  0805               	movf	5,w	;volatile
   963  0395  39C3               	andlw	195
   964  0396  0085               	movwf	5	;volatile
   965  0397                     l892:
   966                           
   967                           ;ssd.c: 12:     PORTA = PORTA & 0xC3;
   968  0397  1283               	bcf	3,5	;RP0=0, select bank0
   969  0398  1303               	bcf	3,6	;RP1=0, select bank0
   970  0399  0805               	movf	5,w	;volatile
   971  039A  39C3               	andlw	195
   972  039B  0085               	movwf	5	;volatile
   973  039C                     l46:
   974  039C  0008               	return
   975  039D                     __end_of_init_ssd:
   976                           
   977                           	psect	text4
   978  032F                     __ptext4:	
   979 ;; *************** function _display *****************
   980 ;; Defined at:
   981 ;;		line 15 in file "ssd.c"
   982 ;; Parameters:    Size  Location     Type
   983 ;;  data            1    wreg     PTR unsigned char 
   984 ;;		 -> ssd(4), 
   985 ;; Auto vars:     Size  Location     Type
   986 ;;  data            1    9[BANK0 ] PTR unsigned char 
   987 ;;		 -> ssd(4), 
   988 ;;  wait            2    7[BANK0 ] unsigned int 
   989 ;;  digit           1   10[BANK0 ] unsigned char 
   990 ;; Return value:  Size  Location     Type
   991 ;;                  1    wreg      void 
   992 ;; Registers used:
   993 ;;		wreg, fsr0l, fsr0h, status,2, status,0, btemp+1
   994 ;; Tracked objects:
   995 ;;		On entry : 0/0
   996 ;;		On exit  : 0/0
   997 ;;		Unchanged: 0/0
   998 ;; Data sizes:     COMMON   BANK0   BANK1   BANK3   BANK2
   999 ;;      Params:         0       0       0       0       0
  1000 ;;      Locals:         0       4       0       0       0
  1001 ;;      Temps:          0       1       0       0       0
  1002 ;;      Totals:         0       5       0       0       0
  1003 ;;Total ram usage:        5 bytes
  1004 ;; Hardware stack levels used:    1
  1005 ;; Hardware stack levels required when called:    2
  1006 ;; This function calls:
  1007 ;;		Nothing
  1008 ;; This function is called by:
  1009 ;;		_main
  1010 ;; This function uses a non-reentrant model
  1011 ;;
  1012                           
  1013                           
  1014                           ;psect for function _display
  1015  032F                     _display:
  1016                           
  1017                           ;incstack = 0
  1018                           ; Regs used in _display: [wreg-fsr0h+status,2+status,0+btemp+1]
  1019                           ;display@data stored from wreg
  1020  032F  1283               	bcf	3,5	;RP0=0, select bank0
  1021  0330  1303               	bcf	3,6	;RP1=0, select bank0
  1022  0331  00A9               	movwf	display@data
  1023  0332                     l908:
  1024                           
  1025                           ;ssd.c: 15: void display(unsigned char data[]);ssd.c: 16: {;ssd.c: 17:     unsigned char
      +                           digit;;ssd.c: 19:     for (digit = 0; digit < 4; digit++)
  1026  0332  01AA               	clrf	display@digit
  1027  0333                     l914:
  1028                           
  1029                           ;ssd.c: 20:     {;ssd.c: 22:         PORTD = data[digit];
  1030  0333  082A               	movf	display@digit,w
  1031  0334  0729               	addwf	display@data,w
  1032  0335  00A6               	movwf	??_display
  1033  0336  0826               	movf	??_display,w
  1034  0337  0084               	movwf	4
  1035  0338  1383               	bcf	3,7	;select IRP bank0
  1036  0339  0800               	movf	0,w
  1037  033A  0088               	movwf	8	;volatile
  1038  033B                     l916:
  1039                           
  1040                           ;ssd.c: 24:         PORTA = (PORTA & 0xC3) | (0x04 << digit);
  1041  033B  3004               	movlw	4
  1042  033C  00A6               	movwf	??_display
  1043  033D  0A2A               	incf	display@digit,w
  1044  033E  2B41               	goto	u444
  1045  033F                     u445:
  1046  033F  1003               	clrc
  1047  0340  0DA6               	rlf	??_display,f
  1048  0341                     u444:
  1049  0341  3EFF               	addlw	-1
  1050  0342  1D03               	skipz
  1051  0343  2B3F               	goto	u445
  1052  0344  0805               	movf	5,w	;volatile
  1053  0345  39C3               	andlw	195
  1054  0346  0426               	iorwf	??_display,w
  1055  0347  0085               	movwf	5	;volatile
  1056  0348                     l918:
  1057                           
  1058                           ;ssd.c: 26:         for (unsigned int wait = 400; wait--; );
  1059  0348  3090               	movlw	144
  1060  0349  00A7               	movwf	display@wait
  1061  034A  3001               	movlw	1
  1062  034B  00A8               	movwf	display@wait+1
  1063  034C                     l920:
  1064  034C  3001               	movlw	1
  1065  034D  02A7               	subwf	display@wait,f
  1066  034E  3000               	movlw	0
  1067  034F  1C03               	skipc
  1068  0350  03A8               	decf	display@wait+1,f
  1069  0351  02A8               	subwf	display@wait+1,f
  1070  0352  0A27               	incf	display@wait,w
  1071  0353  1D03               	skipz
  1072  0354  2B59               	goto	u451
  1073  0355  0A28               	incf	display@wait+1,w
  1074  0356  1D03               	btfss	3,2
  1075  0357  2B59               	goto	u451
  1076  0358  2B5A               	goto	u450
  1077  0359                     u451:
  1078  0359  2B4C               	goto	l920
  1079  035A                     u450:
  1080  035A                     l922:
  1081                           
  1082                           ;ssd.c: 28:     }
  1083  035A  3001               	movlw	1
  1084  035B  00FF               	movwf	btemp+1
  1085  035C  087F               	movf	btemp+1,w
  1086  035D  07AA               	addwf	display@digit,f
  1087  035E                     l924:
  1088  035E  3004               	movlw	4
  1089  035F  022A               	subwf	display@digit,w
  1090  0360  1C03               	skipc
  1091  0361  2B63               	goto	u461
  1092  0362  2B64               	goto	u460
  1093  0363                     u461:
  1094  0363  2B33               	goto	l914
  1095  0364                     u460:
  1096  0364                     l54:
  1097  0364  0008               	return
  1098  0365                     __end_of_display:
  1099                           
  1100                           	psect	text5
  1101  02B9                     __ptext5:	
  1102 ;; *************** function ___lwmod *****************
  1103 ;; Defined at:
  1104 ;;		line 5 in file "C:\Program Files\Microchip\xc8\v2.20\pic\sources\c90\common\lwmod.c"
  1105 ;; Parameters:    Size  Location     Type
  1106 ;;  divisor         2   13[BANK0 ] unsigned int 
  1107 ;;  dividend        2   15[BANK0 ] unsigned int 
  1108 ;; Auto vars:     Size  Location     Type
  1109 ;;  counter         1   17[BANK0 ] unsigned char 
  1110 ;; Return value:  Size  Location     Type
  1111 ;;                  2   13[BANK0 ] unsigned int 
  1112 ;; Registers used:
  1113 ;;		wreg, status,2, status,0, btemp+1
  1114 ;; Tracked objects:
  1115 ;;		On entry : 0/0
  1116 ;;		On exit  : 0/0
  1117 ;;		Unchanged: 0/0
  1118 ;; Data sizes:     COMMON   BANK0   BANK1   BANK3   BANK2
  1119 ;;      Params:         0       4       0       0       0
  1120 ;;      Locals:         0       1       0       0       0
  1121 ;;      Temps:          0       0       0       0       0
  1122 ;;      Totals:         0       5       0       0       0
  1123 ;;Total ram usage:        5 bytes
  1124 ;; Hardware stack levels used:    1
  1125 ;; Hardware stack levels required when called:    2
  1126 ;; This function calls:
  1127 ;;		Nothing
  1128 ;; This function is called by:
  1129 ;;		_main
  1130 ;; This function uses a non-reentrant model
  1131 ;;
  1132                           
  1133                           
  1134                           ;psect for function ___lwmod
  1135  02B9                     ___lwmod:
  1136  02B9                     l974:	
  1137                           ;incstack = 0
  1138                           ; Regs used in ___lwmod: [wreg+status,2+status,0+btemp+1]
  1139                           
  1140  02B9  1283               	bcf	3,5	;RP0=0, select bank0
  1141  02BA  1303               	bcf	3,6	;RP1=0, select bank0
  1142  02BB  082D               	movf	___lwmod@divisor,w
  1143  02BC  042E               	iorwf	___lwmod@divisor+1,w
  1144  02BD  1903               	btfsc	3,2
  1145  02BE  2AC0               	goto	u601
  1146  02BF  2AC1               	goto	u600
  1147  02C0                     u601:
  1148  02C0  2AF0               	goto	l992
  1149  02C1                     u600:
  1150  02C1                     l976:
  1151  02C1  01B1               	clrf	___lwmod@counter
  1152  02C2  0AB1               	incf	___lwmod@counter,f
  1153  02C3  2ACF               	goto	l982
  1154  02C4                     l978:
  1155  02C4  3001               	movlw	1
  1156  02C5                     u615:
  1157  02C5  1003               	clrc
  1158  02C6  0DAD               	rlf	___lwmod@divisor,f
  1159  02C7  0DAE               	rlf	___lwmod@divisor+1,f
  1160  02C8  3EFF               	addlw	-1
  1161  02C9  1D03               	skipz
  1162  02CA  2AC5               	goto	u615
  1163  02CB                     l980:
  1164  02CB  3001               	movlw	1
  1165  02CC  00FF               	movwf	btemp+1
  1166  02CD  087F               	movf	btemp+1,w
  1167  02CE  07B1               	addwf	___lwmod@counter,f
  1168  02CF                     l982:
  1169  02CF  1FAE               	btfss	___lwmod@divisor+1,7
  1170  02D0  2AD2               	goto	u621
  1171  02D1  2AD3               	goto	u620
  1172  02D2                     u621:
  1173  02D2  2AC4               	goto	l978
  1174  02D3                     u620:
  1175  02D3                     l984:
  1176  02D3  082E               	movf	___lwmod@divisor+1,w
  1177  02D4  0230               	subwf	___lwmod@dividend+1,w
  1178  02D5  1D03               	skipz
  1179  02D6  2AD9               	goto	u635
  1180  02D7  082D               	movf	___lwmod@divisor,w
  1181  02D8  022F               	subwf	___lwmod@dividend,w
  1182  02D9                     u635:
  1183  02D9  1C03               	skipc
  1184  02DA  2ADC               	goto	u631
  1185  02DB  2ADD               	goto	u630
  1186  02DC                     u631:
  1187  02DC  2AE3               	goto	l988
  1188  02DD                     u630:
  1189  02DD                     l986:
  1190  02DD  082D               	movf	___lwmod@divisor,w
  1191  02DE  02AF               	subwf	___lwmod@dividend,f
  1192  02DF  082E               	movf	___lwmod@divisor+1,w
  1193  02E0  1C03               	skipc
  1194  02E1  03B0               	decf	___lwmod@dividend+1,f
  1195  02E2  02B0               	subwf	___lwmod@dividend+1,f
  1196  02E3                     l988:
  1197  02E3  3001               	movlw	1
  1198  02E4                     u645:
  1199  02E4  1003               	clrc
  1200  02E5  0CAE               	rrf	___lwmod@divisor+1,f
  1201  02E6  0CAD               	rrf	___lwmod@divisor,f
  1202  02E7  3EFF               	addlw	-1
  1203  02E8  1D03               	skipz
  1204  02E9  2AE4               	goto	u645
  1205  02EA                     l990:
  1206  02EA  3001               	movlw	1
  1207  02EB  02B1               	subwf	___lwmod@counter,f
  1208  02EC  1D03               	btfss	3,2
  1209  02ED  2AEF               	goto	u651
  1210  02EE  2AF0               	goto	u650
  1211  02EF                     u651:
  1212  02EF  2AD3               	goto	l984
  1213  02F0                     u650:
  1214  02F0                     l992:
  1215  02F0  0830               	movf	___lwmod@dividend+1,w
  1216  02F1  00AE               	movwf	?___lwmod+1
  1217  02F2  082F               	movf	___lwmod@dividend,w
  1218  02F3  00AD               	movwf	?___lwmod
  1219  02F4                     l462:
  1220  02F4  0008               	return
  1221  02F5                     __end_of___lwmod:
  1222                           
  1223                           	psect	text6
  1224  022F                     __ptext6:	
  1225 ;; *************** function ___lwdiv *****************
  1226 ;; Defined at:
  1227 ;;		line 5 in file "C:\Program Files\Microchip\xc8\v2.20\pic\sources\c90\common\lwdiv.c"
  1228 ;; Parameters:    Size  Location     Type
  1229 ;;  divisor         2    6[BANK0 ] unsigned int 
  1230 ;;  dividend        2    8[BANK0 ] unsigned int 
  1231 ;; Auto vars:     Size  Location     Type
  1232 ;;  quotient        2   10[BANK0 ] unsigned int 
  1233 ;;  counter         1   12[BANK0 ] unsigned char 
  1234 ;; Return value:  Size  Location     Type
  1235 ;;                  2    6[BANK0 ] unsigned int 
  1236 ;; Registers used:
  1237 ;;		wreg, status,2, status,0, btemp+1
  1238 ;; Tracked objects:
  1239 ;;		On entry : 0/0
  1240 ;;		On exit  : 0/0
  1241 ;;		Unchanged: 0/0
  1242 ;; Data sizes:     COMMON   BANK0   BANK1   BANK3   BANK2
  1243 ;;      Params:         0       4       0       0       0
  1244 ;;      Locals:         0       3       0       0       0
  1245 ;;      Temps:          0       0       0       0       0
  1246 ;;      Totals:         0       7       0       0       0
  1247 ;;Total ram usage:        7 bytes
  1248 ;; Hardware stack levels used:    1
  1249 ;; Hardware stack levels required when called:    2
  1250 ;; This function calls:
  1251 ;;		Nothing
  1252 ;; This function is called by:
  1253 ;;		_main
  1254 ;; This function uses a non-reentrant model
  1255 ;;
  1256                           
  1257                           
  1258                           ;psect for function ___lwdiv
  1259  022F                     ___lwdiv:
  1260  022F                     l948:	
  1261                           ;incstack = 0
  1262                           ; Regs used in ___lwdiv: [wreg+status,2+status,0+btemp+1]
  1263                           
  1264  022F  1283               	bcf	3,5	;RP0=0, select bank0
  1265  0230  1303               	bcf	3,6	;RP1=0, select bank0
  1266  0231  01AA               	clrf	___lwdiv@quotient
  1267  0232  01AB               	clrf	___lwdiv@quotient+1
  1268  0233                     l950:
  1269  0233  0826               	movf	___lwdiv@divisor,w
  1270  0234  0427               	iorwf	___lwdiv@divisor+1,w
  1271  0235  1903               	btfsc	3,2
  1272  0236  2A38               	goto	u531
  1273  0237  2A39               	goto	u530
  1274  0238                     u531:
  1275  0238  2A70               	goto	l970
  1276  0239                     u530:
  1277  0239                     l952:
  1278  0239  01AC               	clrf	___lwdiv@counter
  1279  023A  0AAC               	incf	___lwdiv@counter,f
  1280  023B  2A47               	goto	l958
  1281  023C                     l954:
  1282  023C  3001               	movlw	1
  1283  023D                     u545:
  1284  023D  1003               	clrc
  1285  023E  0DA6               	rlf	___lwdiv@divisor,f
  1286  023F  0DA7               	rlf	___lwdiv@divisor+1,f
  1287  0240  3EFF               	addlw	-1
  1288  0241  1D03               	skipz
  1289  0242  2A3D               	goto	u545
  1290  0243                     l956:
  1291  0243  3001               	movlw	1
  1292  0244  00FF               	movwf	btemp+1
  1293  0245  087F               	movf	btemp+1,w
  1294  0246  07AC               	addwf	___lwdiv@counter,f
  1295  0247                     l958:
  1296  0247  1FA7               	btfss	___lwdiv@divisor+1,7
  1297  0248  2A4A               	goto	u551
  1298  0249  2A4B               	goto	u550
  1299  024A                     u551:
  1300  024A  2A3C               	goto	l954
  1301  024B                     u550:
  1302  024B                     l960:
  1303  024B  3001               	movlw	1
  1304  024C                     u565:
  1305  024C  1003               	clrc
  1306  024D  0DAA               	rlf	___lwdiv@quotient,f
  1307  024E  0DAB               	rlf	___lwdiv@quotient+1,f
  1308  024F  3EFF               	addlw	-1
  1309  0250  1D03               	skipz
  1310  0251  2A4C               	goto	u565
  1311  0252  0827               	movf	___lwdiv@divisor+1,w
  1312  0253  0229               	subwf	___lwdiv@dividend+1,w
  1313  0254  1D03               	skipz
  1314  0255  2A58               	goto	u575
  1315  0256  0826               	movf	___lwdiv@divisor,w
  1316  0257  0228               	subwf	___lwdiv@dividend,w
  1317  0258                     u575:
  1318  0258  1C03               	skipc
  1319  0259  2A5B               	goto	u571
  1320  025A  2A5C               	goto	u570
  1321  025B                     u571:
  1322  025B  2A63               	goto	l966
  1323  025C                     u570:
  1324  025C                     l962:
  1325  025C  0826               	movf	___lwdiv@divisor,w
  1326  025D  02A8               	subwf	___lwdiv@dividend,f
  1327  025E  0827               	movf	___lwdiv@divisor+1,w
  1328  025F  1C03               	skipc
  1329  0260  03A9               	decf	___lwdiv@dividend+1,f
  1330  0261  02A9               	subwf	___lwdiv@dividend+1,f
  1331  0262                     l964:
  1332  0262  142A               	bsf	___lwdiv@quotient,0
  1333  0263                     l966:
  1334  0263  3001               	movlw	1
  1335  0264                     u585:
  1336  0264  1003               	clrc
  1337  0265  0CA7               	rrf	___lwdiv@divisor+1,f
  1338  0266  0CA6               	rrf	___lwdiv@divisor,f
  1339  0267  3EFF               	addlw	-1
  1340  0268  1D03               	skipz
  1341  0269  2A64               	goto	u585
  1342  026A                     l968:
  1343  026A  3001               	movlw	1
  1344  026B  02AC               	subwf	___lwdiv@counter,f
  1345  026C  1D03               	btfss	3,2
  1346  026D  2A6F               	goto	u591
  1347  026E  2A70               	goto	u590
  1348  026F                     u591:
  1349  026F  2A4B               	goto	l960
  1350  0270                     u590:
  1351  0270                     l970:
  1352  0270  082B               	movf	___lwdiv@quotient+1,w
  1353  0271  00A7               	movwf	?___lwdiv+1
  1354  0272  082A               	movf	___lwdiv@quotient,w
  1355  0273  00A6               	movwf	?___lwdiv
  1356  0274                     l452:
  1357  0274  0008               	return
  1358  0275                     __end_of___lwdiv:
  1359                           
  1360                           	psect	text7
  1361  0033                     __ptext7:	
  1362 ;; *************** function _isr *****************
  1363 ;; Defined at:
  1364 ;;		line 4 in file "isr_1.c"
  1365 ;; Parameters:    Size  Location     Type
  1366 ;;		None
  1367 ;; Auto vars:     Size  Location     Type
  1368 ;;		None
  1369 ;; Return value:  Size  Location     Type
  1370 ;;                  1    wreg      void 
  1371 ;; Registers used:
  1372 ;;		wreg, fsr0l, fsr0h, status,2, status,0, btemp+1, pclath, cstack
  1373 ;; Tracked objects:
  1374 ;;		On entry : 0/0
  1375 ;;		On exit  : 0/0
  1376 ;;		Unchanged: 0/0
  1377 ;; Data sizes:     COMMON   BANK0   BANK1   BANK3   BANK2
  1378 ;;      Params:         0       0       0       0       0
  1379 ;;      Locals:         0       0       0       0       0
  1380 ;;      Temps:          0       6       0       0       0
  1381 ;;      Totals:         0       6       0       0       0
  1382 ;;Total ram usage:        6 bytes
  1383 ;; Hardware stack levels used:    1
  1384 ;; Hardware stack levels required when called:    1
  1385 ;; This function calls:
  1386 ;;		___llmod
  1387 ;;		i1___lwdiv
  1388 ;;		i1___lwmod
  1389 ;; This function is called by:
  1390 ;;		Interrupt level 1
  1391 ;; This function uses a non-reentrant model
  1392 ;;
  1393                           
  1394                           
  1395                           ;psect for function _isr
  1396  0033                     _isr:
  1397  0033                     i1l1056:
  1398                           
  1399                           ;isr_1.c: 6:     static unsigned long int count=0;;isr_1.c: 8:     if(TMR2IF)
  1400  0033  1C8C               	btfss	12,1	;volatile
  1401  0034  2836               	goto	u79_21
  1402  0035  2837               	goto	u79_20
  1403  0036                     u79_21:
  1404  0036  293F               	goto	i1l81
  1405  0037                     u79_20:
  1406  0037                     i1l1058:
  1407                           
  1408                           ;isr_1.c: 9:     {;isr_1.c: 10:         TMR2IF=0;
  1409  0037  108C               	bcf	12,1	;volatile
  1410  0038                     i1l1060:
  1411                           
  1412                           ;isr_1.c: 11:         ++count;
  1413  0038  3001               	movlw	1
  1414  0039  07BE               	addwf	isr@count,f
  1415  003A  3000               	movlw	0
  1416  003B  1803               	skipnc
  1417  003C  3001               	movlw	1
  1418  003D  07BF               	addwf	isr@count+1,f
  1419  003E  3000               	movlw	0
  1420  003F  1803               	skipnc
  1421  0040  3001               	movlw	1
  1422  0041  07C0               	addwf	isr@count+2,f
  1423  0042  3000               	movlw	0
  1424  0043  1803               	skipnc
  1425  0044  3001               	movlw	1
  1426  0045  07C1               	addwf	isr@count+3,f
  1427  0046                     i1l1062:
  1428                           
  1429                           ;isr_1.c: 12:         if(count == 75000)
  1430  0046  30F8               	movlw	248
  1431  0047  063E               	xorwf	isr@count,w
  1432  0048  3024               	movlw	36
  1433  0049  1903               	skipnz
  1434  004A  063F               	xorwf	isr@count+1,w
  1435  004B  1D03               	skipz
  1436  004C  2852               	goto	u80_21
  1437  004D  0340               	decf	isr@count+2,w
  1438  004E  0441               	iorwf	isr@count+3,w
  1439  004F  1D03               	btfss	3,2
  1440  0050  2852               	goto	u80_21
  1441  0051  2853               	goto	u80_20
  1442  0052                     u80_21:
  1443  0052  28F7               	goto	i1l1080
  1444  0053                     u80_20:
  1445  0053                     i1l1064:
  1446                           
  1447                           ;isr_1.c: 13:         {;isr_1.c: 14:             count=0;
  1448  0053  3000               	movlw	0
  1449  0054  00C1               	movwf	isr@count+3
  1450  0055  3000               	movlw	0
  1451  0056  00C0               	movwf	isr@count+2
  1452  0057  3000               	movlw	0
  1453  0058  00BF               	movwf	isr@count+1
  1454  0059  3000               	movlw	0
  1455  005A  00BE               	movwf	isr@count
  1456  005B                     i1l1066:
  1457                           
  1458                           ;isr_1.c: 16:             if(++minute == 60)
  1459  005B  3001               	movlw	1
  1460  005C  07C2               	addwf	_minute,f
  1461  005D  1803               	skipnc
  1462  005E  0AC3               	incf	_minute+1,f
  1463  005F  3000               	movlw	0
  1464  0060  07C3               	addwf	_minute+1,f
  1465  0061  303C               	movlw	60
  1466  0062  0642               	xorwf	_minute,w
  1467  0063  0443               	iorwf	_minute+1,w
  1468  0064  1D03               	btfss	3,2
  1469  0065  2867               	goto	u81_21
  1470  0066  2868               	goto	u81_20
  1471  0067                     u81_21:
  1472  0067  28BC               	goto	i1l1076
  1473  0068                     u81_20:
  1474  0068                     i1l1068:
  1475                           
  1476                           ;isr_1.c: 17:             {;isr_1.c: 18:                 minute=0;
  1477  0068  01C2               	clrf	_minute
  1478  0069  01C3               	clrf	_minute+1
  1479  006A                     i1l1070:
  1480                           
  1481                           ;isr_1.c: 19:                 hour = (hour+1) % 24;
  1482  006A  3018               	movlw	24
  1483  006B  00F7               	movwf	i1___lwmod@divisor
  1484  006C  3000               	movlw	0
  1485  006D  00F8               	movwf	i1___lwmod@divisor+1
  1486  006E  083C               	movf	_hour,w
  1487  006F  3E01               	addlw	1
  1488  0070  00F9               	movwf	i1___lwmod@dividend
  1489  0071  083D               	movf	_hour+1,w
  1490  0072  1803               	skipnc
  1491  0073  3E01               	addlw	1
  1492  0074  3E00               	addlw	0
  1493  0075  00FA               	movwf	i1___lwmod@dividend+1
  1494  0076  120A  118A  22F5  120A  118A  	fcall	i1___lwmod
  1495  007B  0878               	movf	?i1___lwmod+1,w
  1496  007C  1283               	bcf	3,5	;RP0=0, select bank0
  1497  007D  1303               	bcf	3,6	;RP1=0, select bank0
  1498  007E  00BD               	movwf	_hour+1
  1499  007F  0877               	movf	?i1___lwmod,w
  1500  0080  00BC               	movwf	_hour
  1501  0081                     i1l1072:
  1502                           
  1503                           ;isr_1.c: 21:                 ssd[0] = digits[(hour / 10) % 10];
  1504  0081  300A               	movlw	10
  1505  0082  00F7               	movwf	i1___lwmod@divisor
  1506  0083  3000               	movlw	0
  1507  0084  00F8               	movwf	i1___lwmod@divisor+1
  1508  0085  300A               	movlw	10
  1509  0086  00F0               	movwf	i1___lwdiv@divisor
  1510  0087  3000               	movlw	0
  1511  0088  00F1               	movwf	i1___lwdiv@divisor+1
  1512  0089  083D               	movf	_hour+1,w
  1513  008A  00F3               	movwf	i1___lwdiv@dividend+1
  1514  008B  083C               	movf	_hour,w
  1515  008C  00F2               	movwf	i1___lwdiv@dividend
  1516  008D  120A  118A  2275  120A  118A  	fcall	i1___lwdiv
  1517  0092  0871               	movf	?i1___lwdiv+1,w
  1518  0093  00FA               	movwf	i1___lwmod@dividend+1
  1519  0094  0870               	movf	?i1___lwdiv,w
  1520  0095  00F9               	movwf	i1___lwmod@dividend
  1521  0096  120A  118A  22F5  120A  118A  	fcall	i1___lwmod
  1522  009B  0877               	movf	?i1___lwmod,w
  1523  009C  3E32               	addlw	(low (_digits| 0))& (0+255)
  1524  009D  0084               	movwf	4
  1525  009E  1383               	bcf	3,7	;select IRP bank0
  1526  009F  0800               	movf	0,w
  1527  00A0  00FF               	movwf	btemp+1
  1528  00A1  087F               	movf	btemp+1,w
  1529  00A2  1283               	bcf	3,5	;RP0=0, select bank0
  1530  00A3  1303               	bcf	3,6	;RP1=0, select bank0
  1531  00A4  00C4               	movwf	_ssd
  1532  00A5                     i1l1074:
  1533                           
  1534                           ;isr_1.c: 22:                 ssd[1] = digits[(hour / 1) % 10];
  1535  00A5  300A               	movlw	10
  1536  00A6  00F7               	movwf	i1___lwmod@divisor
  1537  00A7  3000               	movlw	0
  1538  00A8  00F8               	movwf	i1___lwmod@divisor+1
  1539  00A9  083D               	movf	_hour+1,w
  1540  00AA  00FA               	movwf	i1___lwmod@dividend+1
  1541  00AB  083C               	movf	_hour,w
  1542  00AC  00F9               	movwf	i1___lwmod@dividend
  1543  00AD  120A  118A  22F5  120A  118A  	fcall	i1___lwmod
  1544  00B2  0877               	movf	?i1___lwmod,w
  1545  00B3  3E32               	addlw	(low (_digits| 0))& (0+255)
  1546  00B4  0084               	movwf	4
  1547  00B5  1383               	bcf	3,7	;select IRP bank0
  1548  00B6  0800               	movf	0,w
  1549  00B7  00FF               	movwf	btemp+1
  1550  00B8  087F               	movf	btemp+1,w
  1551  00B9  1283               	bcf	3,5	;RP0=0, select bank0
  1552  00BA  1303               	bcf	3,6	;RP1=0, select bank0
  1553  00BB  00C5               	movwf	_ssd+1
  1554  00BC                     i1l1076:
  1555                           
  1556                           ;isr_1.c: 25:             ssd[2] = digits[(minute / 10) % 10];
  1557  00BC  300A               	movlw	10
  1558  00BD  00F7               	movwf	i1___lwmod@divisor
  1559  00BE  3000               	movlw	0
  1560  00BF  00F8               	movwf	i1___lwmod@divisor+1
  1561  00C0  300A               	movlw	10
  1562  00C1  00F0               	movwf	i1___lwdiv@divisor
  1563  00C2  3000               	movlw	0
  1564  00C3  00F1               	movwf	i1___lwdiv@divisor+1
  1565  00C4  0843               	movf	_minute+1,w
  1566  00C5  00F3               	movwf	i1___lwdiv@dividend+1
  1567  00C6  0842               	movf	_minute,w
  1568  00C7  00F2               	movwf	i1___lwdiv@dividend
  1569  00C8  120A  118A  2275  120A  118A  	fcall	i1___lwdiv
  1570  00CD  0871               	movf	?i1___lwdiv+1,w
  1571  00CE  00FA               	movwf	i1___lwmod@dividend+1
  1572  00CF  0870               	movf	?i1___lwdiv,w
  1573  00D0  00F9               	movwf	i1___lwmod@dividend
  1574  00D1  120A  118A  22F5  120A  118A  	fcall	i1___lwmod
  1575  00D6  0877               	movf	?i1___lwmod,w
  1576  00D7  3E32               	addlw	(low (_digits| 0))& (0+255)
  1577  00D8  0084               	movwf	4
  1578  00D9  1383               	bcf	3,7	;select IRP bank0
  1579  00DA  0800               	movf	0,w
  1580  00DB  00FF               	movwf	btemp+1
  1581  00DC  087F               	movf	btemp+1,w
  1582  00DD  1283               	bcf	3,5	;RP0=0, select bank0
  1583  00DE  1303               	bcf	3,6	;RP1=0, select bank0
  1584  00DF  00C6               	movwf	_ssd+2
  1585  00E0                     i1l1078:
  1586                           
  1587                           ;isr_1.c: 26:             ssd[3] = digits[(minute / 1) % 10];
  1588  00E0  300A               	movlw	10
  1589  00E1  00F7               	movwf	i1___lwmod@divisor
  1590  00E2  3000               	movlw	0
  1591  00E3  00F8               	movwf	i1___lwmod@divisor+1
  1592  00E4  0843               	movf	_minute+1,w
  1593  00E5  00FA               	movwf	i1___lwmod@dividend+1
  1594  00E6  0842               	movf	_minute,w
  1595  00E7  00F9               	movwf	i1___lwmod@dividend
  1596  00E8  120A  118A  22F5  120A  118A  	fcall	i1___lwmod
  1597  00ED  0877               	movf	?i1___lwmod,w
  1598  00EE  3E32               	addlw	(low (_digits| 0))& (0+255)
  1599  00EF  0084               	movwf	4
  1600  00F0  1383               	bcf	3,7	;select IRP bank0
  1601  00F1  0800               	movf	0,w
  1602  00F2  00FF               	movwf	btemp+1
  1603  00F3  087F               	movf	btemp+1,w
  1604  00F4  1283               	bcf	3,5	;RP0=0, select bank0
  1605  00F5  1303               	bcf	3,6	;RP1=0, select bank0
  1606  00F6  00C7               	movwf	_ssd+3
  1607  00F7                     i1l1080:
  1608                           
  1609                           ;isr_1.c: 31:         if(((count % 625) == 0) || (count == 0))
  1610  00F7  3000               	movlw	0
  1611  00F8  00F3               	movwf	___llmod@divisor+3
  1612  00F9  3000               	movlw	0
  1613  00FA  00F2               	movwf	___llmod@divisor+2
  1614  00FB  3002               	movlw	2
  1615  00FC  00F1               	movwf	___llmod@divisor+1
  1616  00FD  3071               	movlw	113
  1617  00FE  00F0               	movwf	___llmod@divisor
  1618  00FF  0841               	movf	isr@count+3,w
  1619  0100  00F7               	movwf	___llmod@dividend+3
  1620  0101  0840               	movf	isr@count+2,w
  1621  0102  00F6               	movwf	___llmod@dividend+2
  1622  0103  083F               	movf	isr@count+1,w
  1623  0104  00F5               	movwf	___llmod@dividend+1
  1624  0105  083E               	movf	isr@count,w
  1625  0106  00F4               	movwf	___llmod@dividend
  1626  0107  120A  118A  21DB  120A  118A  	fcall	___llmod
  1627  010C  0873               	movf	?___llmod+3,w
  1628  010D  0472               	iorwf	?___llmod+2,w
  1629  010E  0471               	iorwf	?___llmod+1,w
  1630  010F  0470               	iorwf	?___llmod,w
  1631  0110  1903               	skipnz
  1632  0111  2913               	goto	u82_21
  1633  0112  2914               	goto	u82_20
  1634  0113                     u82_21:
  1635  0113  291E               	goto	i1l1084
  1636  0114                     u82_20:
  1637  0114                     i1l1082:
  1638  0114  1283               	bcf	3,5	;RP0=0, select bank0
  1639  0115  1303               	bcf	3,6	;RP1=0, select bank0
  1640  0116  0841               	movf	isr@count+3,w
  1641  0117  0440               	iorwf	isr@count+2,w
  1642  0118  043F               	iorwf	isr@count+1,w
  1643  0119  043E               	iorwf	isr@count,w
  1644  011A  1D03               	skipz
  1645  011B  291D               	goto	u83_21
  1646  011C  291E               	goto	u83_20
  1647  011D                     u83_21:
  1648  011D  293F               	goto	i1l81
  1649  011E                     u83_20:
  1650  011E                     i1l1084:
  1651                           
  1652                           ;isr_1.c: 32:         {;isr_1.c: 33:             flag=!flag;
  1653  011E  087C               	movf	_flag,w
  1654  011F  047D               	iorwf	_flag+1,w
  1655  0120  1903               	btfsc	3,2
  1656  0121  2923               	goto	u84_21
  1657  0122  2925               	goto	u84_20
  1658  0123                     u84_21:
  1659  0123  3001               	movlw	1
  1660  0124  2926               	goto	u85_20
  1661  0125                     u84_20:
  1662  0125  3000               	movlw	0
  1663  0126                     u85_20:
  1664  0126  1283               	bcf	3,5	;RP0=0, select bank0
  1665  0127  1303               	bcf	3,6	;RP1=0, select bank0
  1666  0128  00A0               	movwf	??_isr
  1667  0129  01A1               	clrf	??_isr+1
  1668  012A  0820               	movf	??_isr,w
  1669  012B  00FC               	movwf	_flag
  1670  012C  0821               	movf	??_isr+1,w
  1671  012D  00FD               	movwf	_flag+1
  1672                           
  1673                           ;isr_1.c: 34:             if(flag)
  1674  012E  087C               	movf	_flag,w
  1675  012F  047D               	iorwf	_flag+1,w
  1676  0130  1903               	btfsc	3,2
  1677  0131  2933               	goto	u86_21
  1678  0132  2934               	goto	u86_20
  1679  0133                     u86_21:
  1680  0133  293A               	goto	i1l1088
  1681  0134                     u86_20:
  1682  0134                     i1l1086:
  1683                           
  1684                           ;isr_1.c: 35:                 ssd[1]=ssd[1] | 0x80;
  1685  0134  0845               	movf	_ssd+1,w
  1686  0135  3880               	iorlw	128
  1687  0136  00FF               	movwf	btemp+1
  1688  0137  087F               	movf	btemp+1,w
  1689  0138  00C5               	movwf	_ssd+1
  1690  0139  293F               	goto	i1l81
  1691  013A                     i1l1088:
  1692                           
  1693                           ;isr_1.c: 37:                 ssd[1]=ssd[1] & 0x7F;
  1694  013A  0845               	movf	_ssd+1,w
  1695  013B  397F               	andlw	127
  1696  013C  00FF               	movwf	btemp+1
  1697  013D  087F               	movf	btemp+1,w
  1698  013E  00C5               	movwf	_ssd+1
  1699  013F                     i1l81:
  1700  013F  0825               	movf	??_isr+5,w
  1701  0140  00FF               	movwf	btemp+1
  1702  0141  0824               	movf	??_isr+4,w
  1703  0142  008A               	movwf	10
  1704  0143  0823               	movf	??_isr+3,w
  1705  0144  0084               	movwf	4
  1706  0145  0E22               	swapf	(??_isr+2)^0,w
  1707  0146  0083               	movwf	3
  1708  0147  0EFE               	swapf	btemp,f
  1709  0148  0E7E               	swapf	btemp,w
  1710  0149  0009               	retfie
  1711  014A                     __end_of_isr:
  1712                           
  1713                           	psect	intentry
  1714  0004                     __pintentry:	
  1715                           ;incstack = 0
  1716                           ; Regs used in _isr: [wreg-fsr0h+status,2+status,0+btemp+1+pclath+cstack]
  1717                           
  1718  0004                     interrupt_function:
  1719  007E                     saved_w	set	btemp
  1720  0004  00FE               	movwf	btemp
  1721  0005  0E03               	swapf	3,w
  1722  0006  1283               	bcf	3,5	;RP0=0, select bank0
  1723  0007  1303               	bcf	3,6	;RP1=0, select bank0
  1724  0008  00A2               	movwf	??_isr+2
  1725  0009  0804               	movf	4,w
  1726  000A  00A3               	movwf	??_isr+3
  1727  000B  080A               	movf	10,w
  1728  000C  00A4               	movwf	??_isr+4
  1729  000D  087F               	movf	btemp+1,w
  1730  000E  00A5               	movwf	??_isr+5
  1731  000F  120A  118A  2833   	ljmp	_isr
  1732                           
  1733                           	psect	text8
  1734  02F5                     __ptext8:	
  1735 ;; *************** function i1___lwmod *****************
  1736 ;; Defined at:
  1737 ;;		line 5 in file "C:\Program Files\Microchip\xc8\v2.20\pic\sources\c90\common\lwmod.c"
  1738 ;; Parameters:    Size  Location     Type
  1739 ;;  divisor         2    7[COMMON] unsigned int 
  1740 ;;  dividend        2    9[COMMON] unsigned int 
  1741 ;; Auto vars:     Size  Location     Type
  1742 ;;  counter         1   11[COMMON] unsigned char 
  1743 ;; Return value:  Size  Location     Type
  1744 ;;                  2    7[COMMON] unsigned int 
  1745 ;; Registers used:
  1746 ;;		wreg, status,2, status,0, btemp+1
  1747 ;; Tracked objects:
  1748 ;;		On entry : 0/0
  1749 ;;		On exit  : 0/0
  1750 ;;		Unchanged: 0/0
  1751 ;; Data sizes:     COMMON   BANK0   BANK1   BANK3   BANK2
  1752 ;;      Params:         4       0       0       0       0
  1753 ;;      Locals:         1       0       0       0       0
  1754 ;;      Temps:          0       0       0       0       0
  1755 ;;      Totals:         5       0       0       0       0
  1756 ;;Total ram usage:        5 bytes
  1757 ;; Hardware stack levels used:    1
  1758 ;; This function calls:
  1759 ;;		Nothing
  1760 ;; This function is called by:
  1761 ;;		_isr
  1762 ;; This function uses a non-reentrant model
  1763 ;;
  1764                           
  1765                           
  1766                           ;psect for function i1___lwmod
  1767  02F5                     i1___lwmod:
  1768  02F5                     i1l1022:	
  1769                           ;incstack = 0
  1770                           ; Regs used in i1___lwmod: [wreg+status,2+status,0+btemp+1]
  1771                           
  1772  02F5  0877               	movf	i1___lwmod@divisor,w
  1773  02F6  0478               	iorwf	i1___lwmod@divisor+1,w
  1774  02F7  1903               	btfsc	3,2
  1775  02F8  2AFA               	goto	u73_21
  1776  02F9  2AFB               	goto	u73_20
  1777  02FA                     u73_21:
  1778  02FA  2B2A               	goto	i1l1040
  1779  02FB                     u73_20:
  1780  02FB                     i1l1024:
  1781  02FB  01FB               	clrf	i1___lwmod@counter
  1782  02FC  0AFB               	incf	i1___lwmod@counter,f
  1783  02FD  2B09               	goto	i1l1030
  1784  02FE                     i1l1026:
  1785  02FE  3001               	movlw	1
  1786  02FF                     u74_25:
  1787  02FF  1003               	clrc
  1788  0300  0DF7               	rlf	i1___lwmod@divisor,f
  1789  0301  0DF8               	rlf	i1___lwmod@divisor+1,f
  1790  0302  3EFF               	addlw	-1
  1791  0303  1D03               	skipz
  1792  0304  2AFF               	goto	u74_25
  1793  0305                     i1l1028:
  1794  0305  3001               	movlw	1
  1795  0306  00FF               	movwf	btemp+1
  1796  0307  087F               	movf	btemp+1,w
  1797  0308  07FB               	addwf	i1___lwmod@counter,f
  1798  0309                     i1l1030:
  1799  0309  1FF8               	btfss	i1___lwmod@divisor+1,7
  1800  030A  2B0C               	goto	u75_21
  1801  030B  2B0D               	goto	u75_20
  1802  030C                     u75_21:
  1803  030C  2AFE               	goto	i1l1026
  1804  030D                     u75_20:
  1805  030D                     i1l1032:
  1806  030D  0878               	movf	i1___lwmod@divisor+1,w
  1807  030E  027A               	subwf	i1___lwmod@dividend+1,w
  1808  030F  1D03               	skipz
  1809  0310  2B13               	goto	u76_25
  1810  0311  0877               	movf	i1___lwmod@divisor,w
  1811  0312  0279               	subwf	i1___lwmod@dividend,w
  1812  0313                     u76_25:
  1813  0313  1C03               	skipc
  1814  0314  2B16               	goto	u76_21
  1815  0315  2B17               	goto	u76_20
  1816  0316                     u76_21:
  1817  0316  2B1D               	goto	i1l1036
  1818  0317                     u76_20:
  1819  0317                     i1l1034:
  1820  0317  0877               	movf	i1___lwmod@divisor,w
  1821  0318  02F9               	subwf	i1___lwmod@dividend,f
  1822  0319  0878               	movf	i1___lwmod@divisor+1,w
  1823  031A  1C03               	skipc
  1824  031B  03FA               	decf	i1___lwmod@dividend+1,f
  1825  031C  02FA               	subwf	i1___lwmod@dividend+1,f
  1826  031D                     i1l1036:
  1827  031D  3001               	movlw	1
  1828  031E                     u77_25:
  1829  031E  1003               	clrc
  1830  031F  0CF8               	rrf	i1___lwmod@divisor+1,f
  1831  0320  0CF7               	rrf	i1___lwmod@divisor,f
  1832  0321  3EFF               	addlw	-1
  1833  0322  1D03               	skipz
  1834  0323  2B1E               	goto	u77_25
  1835  0324                     i1l1038:
  1836  0324  3001               	movlw	1
  1837  0325  02FB               	subwf	i1___lwmod@counter,f
  1838  0326  1D03               	btfss	3,2
  1839  0327  2B29               	goto	u78_21
  1840  0328  2B2A               	goto	u78_20
  1841  0329                     u78_21:
  1842  0329  2B0D               	goto	i1l1032
  1843  032A                     u78_20:
  1844  032A                     i1l1040:
  1845  032A  087A               	movf	i1___lwmod@dividend+1,w
  1846  032B  00F8               	movwf	?i1___lwmod+1
  1847  032C  0879               	movf	i1___lwmod@dividend,w
  1848  032D  00F7               	movwf	?i1___lwmod
  1849  032E                     i1l462:
  1850  032E  0008               	return
  1851  032F                     __end_ofi1___lwmod:
  1852                           
  1853                           	psect	text9
  1854  0275                     __ptext9:	
  1855 ;; *************** function i1___lwdiv *****************
  1856 ;; Defined at:
  1857 ;;		line 5 in file "C:\Program Files\Microchip\xc8\v2.20\pic\sources\c90\common\lwdiv.c"
  1858 ;; Parameters:    Size  Location     Type
  1859 ;;  divisor         2    0[COMMON] unsigned int 
  1860 ;;  dividend        2    2[COMMON] unsigned int 
  1861 ;; Auto vars:     Size  Location     Type
  1862 ;;  quotient        2    4[COMMON] unsigned int 
  1863 ;;  counter         1    6[COMMON] unsigned char 
  1864 ;; Return value:  Size  Location     Type
  1865 ;;                  2    0[COMMON] unsigned int 
  1866 ;; Registers used:
  1867 ;;		wreg, status,2, status,0, btemp+1
  1868 ;; Tracked objects:
  1869 ;;		On entry : 0/0
  1870 ;;		On exit  : 0/0
  1871 ;;		Unchanged: 0/0
  1872 ;; Data sizes:     COMMON   BANK0   BANK1   BANK3   BANK2
  1873 ;;      Params:         4       0       0       0       0
  1874 ;;      Locals:         3       0       0       0       0
  1875 ;;      Temps:          0       0       0       0       0
  1876 ;;      Totals:         7       0       0       0       0
  1877 ;;Total ram usage:        7 bytes
  1878 ;; Hardware stack levels used:    1
  1879 ;; This function calls:
  1880 ;;		Nothing
  1881 ;; This function is called by:
  1882 ;;		_isr
  1883 ;; This function uses a non-reentrant model
  1884 ;;
  1885                           
  1886                           
  1887                           ;psect for function i1___lwdiv
  1888  0275                     i1___lwdiv:
  1889  0275                     i1l996:	
  1890                           ;incstack = 0
  1891                           ; Regs used in i1___lwdiv: [wreg+status,2+status,0+btemp+1]
  1892                           
  1893  0275  01F4               	clrf	i1___lwdiv@quotient
  1894  0276  01F5               	clrf	i1___lwdiv@quotient+1
  1895  0277                     i1l998:
  1896  0277  0870               	movf	i1___lwdiv@divisor,w
  1897  0278  0471               	iorwf	i1___lwdiv@divisor+1,w
  1898  0279  1903               	btfsc	3,2
  1899  027A  2A7C               	goto	u66_21
  1900  027B  2A7D               	goto	u66_20
  1901  027C                     u66_21:
  1902  027C  2AB4               	goto	i1l1018
  1903  027D                     u66_20:
  1904  027D                     i1l1000:
  1905  027D  01F6               	clrf	i1___lwdiv@counter
  1906  027E  0AF6               	incf	i1___lwdiv@counter,f
  1907  027F  2A8B               	goto	i1l1006
  1908  0280                     i1l1002:
  1909  0280  3001               	movlw	1
  1910  0281                     u67_25:
  1911  0281  1003               	clrc
  1912  0282  0DF0               	rlf	i1___lwdiv@divisor,f
  1913  0283  0DF1               	rlf	i1___lwdiv@divisor+1,f
  1914  0284  3EFF               	addlw	-1
  1915  0285  1D03               	skipz
  1916  0286  2A81               	goto	u67_25
  1917  0287                     i1l1004:
  1918  0287  3001               	movlw	1
  1919  0288  00FF               	movwf	btemp+1
  1920  0289  087F               	movf	btemp+1,w
  1921  028A  07F6               	addwf	i1___lwdiv@counter,f
  1922  028B                     i1l1006:
  1923  028B  1FF1               	btfss	i1___lwdiv@divisor+1,7
  1924  028C  2A8E               	goto	u68_21
  1925  028D  2A8F               	goto	u68_20
  1926  028E                     u68_21:
  1927  028E  2A80               	goto	i1l1002
  1928  028F                     u68_20:
  1929  028F                     i1l1008:
  1930  028F  3001               	movlw	1
  1931  0290                     u69_25:
  1932  0290  1003               	clrc
  1933  0291  0DF4               	rlf	i1___lwdiv@quotient,f
  1934  0292  0DF5               	rlf	i1___lwdiv@quotient+1,f
  1935  0293  3EFF               	addlw	-1
  1936  0294  1D03               	skipz
  1937  0295  2A90               	goto	u69_25
  1938  0296  0871               	movf	i1___lwdiv@divisor+1,w
  1939  0297  0273               	subwf	i1___lwdiv@dividend+1,w
  1940  0298  1D03               	skipz
  1941  0299  2A9C               	goto	u70_25
  1942  029A  0870               	movf	i1___lwdiv@divisor,w
  1943  029B  0272               	subwf	i1___lwdiv@dividend,w
  1944  029C                     u70_25:
  1945  029C  1C03               	skipc
  1946  029D  2A9F               	goto	u70_21
  1947  029E  2AA0               	goto	u70_20
  1948  029F                     u70_21:
  1949  029F  2AA7               	goto	i1l1014
  1950  02A0                     u70_20:
  1951  02A0                     i1l1010:
  1952  02A0  0870               	movf	i1___lwdiv@divisor,w
  1953  02A1  02F2               	subwf	i1___lwdiv@dividend,f
  1954  02A2  0871               	movf	i1___lwdiv@divisor+1,w
  1955  02A3  1C03               	skipc
  1956  02A4  03F3               	decf	i1___lwdiv@dividend+1,f
  1957  02A5  02F3               	subwf	i1___lwdiv@dividend+1,f
  1958  02A6                     i1l1012:
  1959  02A6  1474               	bsf	i1___lwdiv@quotient,0
  1960  02A7                     i1l1014:
  1961  02A7  3001               	movlw	1
  1962  02A8                     u71_25:
  1963  02A8  1003               	clrc
  1964  02A9  0CF1               	rrf	i1___lwdiv@divisor+1,f
  1965  02AA  0CF0               	rrf	i1___lwdiv@divisor,f
  1966  02AB  3EFF               	addlw	-1
  1967  02AC  1D03               	skipz
  1968  02AD  2AA8               	goto	u71_25
  1969  02AE                     i1l1016:
  1970  02AE  3001               	movlw	1
  1971  02AF  02F6               	subwf	i1___lwdiv@counter,f
  1972  02B0  1D03               	btfss	3,2
  1973  02B1  2AB3               	goto	u72_21
  1974  02B2  2AB4               	goto	u72_20
  1975  02B3                     u72_21:
  1976  02B3  2A8F               	goto	i1l1008
  1977  02B4                     u72_20:
  1978  02B4                     i1l1018:
  1979  02B4  0875               	movf	i1___lwdiv@quotient+1,w
  1980  02B5  00F1               	movwf	?i1___lwdiv+1
  1981  02B6  0874               	movf	i1___lwdiv@quotient,w
  1982  02B7  00F0               	movwf	?i1___lwdiv
  1983  02B8                     i1l452:
  1984  02B8  0008               	return
  1985  02B9                     __end_ofi1___lwdiv:
  1986                           
  1987                           	psect	text10
  1988  01DB                     __ptext10:	
  1989 ;; *************** function ___llmod *****************
  1990 ;; Defined at:
  1991 ;;		line 5 in file "C:\Program Files\Microchip\xc8\v2.20\pic\sources\c90\common\llmod.c"
  1992 ;; Parameters:    Size  Location     Type
  1993 ;;  divisor         4    0[COMMON] unsigned long 
  1994 ;;  dividend        4    4[COMMON] unsigned long 
  1995 ;; Auto vars:     Size  Location     Type
  1996 ;;  counter         1    9[COMMON] unsigned char 
  1997 ;; Return value:  Size  Location     Type
  1998 ;;                  4    0[COMMON] unsigned long 
  1999 ;; Registers used:
  2000 ;;		wreg, status,2, status,0, btemp+1
  2001 ;; Tracked objects:
  2002 ;;		On entry : 0/0
  2003 ;;		On exit  : 0/0
  2004 ;;		Unchanged: 0/0
  2005 ;; Data sizes:     COMMON   BANK0   BANK1   BANK3   BANK2
  2006 ;;      Params:         8       0       0       0       0
  2007 ;;      Locals:         1       0       0       0       0
  2008 ;;      Temps:          1       0       0       0       0
  2009 ;;      Totals:        10       0       0       0       0
  2010 ;;Total ram usage:       10 bytes
  2011 ;; Hardware stack levels used:    1
  2012 ;; This function calls:
  2013 ;;		Nothing
  2014 ;; This function is called by:
  2015 ;;		_isr
  2016 ;; This function uses a non-reentrant model
  2017 ;;
  2018                           
  2019                           
  2020                           ;psect for function ___llmod
  2021  01DB                     ___llmod:
  2022  01DB                     i1l926:	
  2023                           ;incstack = 0
  2024                           ; Regs used in ___llmod: [wreg+status,2+status,0+btemp+1]
  2025                           
  2026  01DB  0873               	movf	___llmod@divisor+3,w
  2027  01DC  0472               	iorwf	___llmod@divisor+2,w
  2028  01DD  0471               	iorwf	___llmod@divisor+1,w
  2029  01DE  0470               	iorwf	___llmod@divisor,w
  2030  01DF  1903               	skipnz
  2031  01E0  29E2               	goto	u47_21
  2032  01E1  29E3               	goto	u47_20
  2033  01E2                     u47_21:
  2034  01E2  2A26               	goto	i1l944
  2035  01E3                     u47_20:
  2036  01E3                     i1l928:
  2037  01E3  01F9               	clrf	___llmod@counter
  2038  01E4  0AF9               	incf	___llmod@counter,f
  2039  01E5  29F3               	goto	i1l934
  2040  01E6                     i1l930:
  2041  01E6  3001               	movlw	1
  2042  01E7  00F8               	movwf	??___llmod
  2043  01E8                     u48_25:
  2044  01E8  1003               	clrc
  2045  01E9  0DF0               	rlf	___llmod@divisor,f
  2046  01EA  0DF1               	rlf	___llmod@divisor+1,f
  2047  01EB  0DF2               	rlf	___llmod@divisor+2,f
  2048  01EC  0DF3               	rlf	___llmod@divisor+3,f
  2049  01ED  0BF8               	decfsz	??___llmod,f
  2050  01EE  29E8               	goto	u48_25
  2051  01EF                     i1l932:
  2052  01EF  3001               	movlw	1
  2053  01F0  00FF               	movwf	btemp+1
  2054  01F1  087F               	movf	btemp+1,w
  2055  01F2  07F9               	addwf	___llmod@counter,f
  2056  01F3                     i1l934:
  2057  01F3  1FF3               	btfss	___llmod@divisor+3,7
  2058  01F4  29F6               	goto	u49_21
  2059  01F5  29F7               	goto	u49_20
  2060  01F6                     u49_21:
  2061  01F6  29E6               	goto	i1l930
  2062  01F7                     u49_20:
  2063  01F7                     i1l936:
  2064  01F7  0873               	movf	___llmod@divisor+3,w
  2065  01F8  0277               	subwf	___llmod@dividend+3,w
  2066  01F9  1D03               	skipz
  2067  01FA  2A05               	goto	u50_25
  2068  01FB  0872               	movf	___llmod@divisor+2,w
  2069  01FC  0276               	subwf	___llmod@dividend+2,w
  2070  01FD  1D03               	skipz
  2071  01FE  2A05               	goto	u50_25
  2072  01FF  0871               	movf	___llmod@divisor+1,w
  2073  0200  0275               	subwf	___llmod@dividend+1,w
  2074  0201  1D03               	skipz
  2075  0202  2A05               	goto	u50_25
  2076  0203  0870               	movf	___llmod@divisor,w
  2077  0204  0274               	subwf	___llmod@dividend,w
  2078  0205                     u50_25:
  2079  0205  1C03               	skipc
  2080  0206  2A08               	goto	u50_21
  2081  0207  2A09               	goto	u50_20
  2082  0208                     u50_21:
  2083  0208  2A17               	goto	i1l940
  2084  0209                     u50_20:
  2085  0209                     i1l938:
  2086  0209  0870               	movf	___llmod@divisor,w
  2087  020A  02F4               	subwf	___llmod@dividend,f
  2088  020B  0871               	movf	___llmod@divisor+1,w
  2089  020C  1C03               	skipc
  2090  020D  0F71               	incfsz	___llmod@divisor+1,w
  2091  020E  02F5               	subwf	___llmod@dividend+1,f
  2092  020F  0872               	movf	___llmod@divisor+2,w
  2093  0210  1C03               	skipc
  2094  0211  0F72               	incfsz	___llmod@divisor+2,w
  2095  0212  02F6               	subwf	___llmod@dividend+2,f
  2096  0213  0873               	movf	___llmod@divisor+3,w
  2097  0214  1C03               	skipc
  2098  0215  0F73               	incfsz	___llmod@divisor+3,w
  2099  0216  02F7               	subwf	___llmod@dividend+3,f
  2100  0217                     i1l940:
  2101  0217  3001               	movlw	1
  2102  0218                     u51_25:
  2103  0218  1003               	clrc
  2104  0219  0CF3               	rrf	___llmod@divisor+3,f
  2105  021A  0CF2               	rrf	___llmod@divisor+2,f
  2106  021B  0CF1               	rrf	___llmod@divisor+1,f
  2107  021C  0CF0               	rrf	___llmod@divisor,f
  2108  021D  3EFF               	addlw	-1
  2109  021E  1D03               	skipz
  2110  021F  2A18               	goto	u51_25
  2111  0220                     i1l942:
  2112  0220  3001               	movlw	1
  2113  0221  02F9               	subwf	___llmod@counter,f
  2114  0222  1D03               	btfss	3,2
  2115  0223  2A25               	goto	u52_21
  2116  0224  2A26               	goto	u52_20
  2117  0225                     u52_21:
  2118  0225  29F7               	goto	i1l936
  2119  0226                     u52_20:
  2120  0226                     i1l944:
  2121  0226  0877               	movf	___llmod@dividend+3,w
  2122  0227  00F3               	movwf	?___llmod+3
  2123  0228  0876               	movf	___llmod@dividend+2,w
  2124  0229  00F2               	movwf	?___llmod+2
  2125  022A  0875               	movf	___llmod@dividend+1,w
  2126  022B  00F1               	movwf	?___llmod+1
  2127  022C  0874               	movf	___llmod@dividend,w
  2128  022D  00F0               	movwf	?___llmod
  2129  022E                     i1l402:
  2130  022E  0008               	return
  2131  022F                     __end_of___llmod:
  2132  007E                     btemp	set	126	;btemp
  2133  007E                     wtemp0	set	126
  2134                           
  2135                           	psect	config
  2136                           
  2137                           ;Config register CONFIG @ 0x2007
  2138                           ;	Oscillator Selection bits
  2139                           ;	FOSC = 0x3, unprogrammed default
  2140                           ;	Watchdog Timer Enable bit
  2141                           ;	WDTE = OFF, WDT disabled
  2142                           ;	Power-up Timer Enable bit
  2143                           ;	PWRTE = 0x1, unprogrammed default
  2144                           ;	Brown-out Reset Enable bit
  2145                           ;	BOREN = 0x1, unprogrammed default
  2146                           ;	Low-Voltage (Single-Supply) In-Circuit Serial Programming Enable bit
  2147                           ;	LVP = 0x1, unprogrammed default
  2148                           ;	Data EEPROM Memory Code Protection bit
  2149                           ;	CPD = 0x1, unprogrammed default
  2150                           ;	Flash Program Memory Write Enable bits
  2151                           ;	WRT = 0x3, unprogrammed default
  2152                           ;	In-Circuit Debugger Mode bit
  2153                           ;	DEBUG = 0x1, unprogrammed default
  2154                           ;	Flash Program Memory Code Protection bit
  2155                           ;	CP = 0x1, unprogrammed default
  2156  2007                     	org	8199
  2157  2007  3FFB               	dw	16379

Data Sizes:
    Strings     0
    Constant    0
    Data        12
    BSS         12
    Persistent  0
    Stack       0

Auto Spaces:
    Space          Size  Autos    Used
    COMMON           14     12      14
    BANK0            80     18      40
    BANK1            80      0       0
    BANK3            96      0       0
    BANK2            96      0       0

Pointer List with Targets:

    display@data	PTR unsigned char  size(1) Largest target is 4
		 -> ssd(BANK0[4]), 


Critical Paths under _main in COMMON

    None.

Critical Paths under _isr in COMMON

    _isr->i1___lwmod
    i1___lwmod->i1___lwdiv

Critical Paths under _main in BANK0

    _main->___lwmod
    ___lwmod->___lwdiv

Critical Paths under _isr in BANK0

    None.

Critical Paths under _main in BANK1

    None.

Critical Paths under _isr in BANK1

    None.

Critical Paths under _main in BANK3

    None.

Critical Paths under _isr in BANK3

    None.

Critical Paths under _main in BANK2

    None.

Critical Paths under _isr in BANK2

    None.

Call Graph Tables:

 ---------------------------------------------------------------------------------
 (Depth) Function   	        Calls       Base Space   Used Autos Params    Refs
 ---------------------------------------------------------------------------------
 (0) _main                                                 0     0      0    2101
                            ___lwdiv
                            ___lwmod
                            _display
                        _init_config
                        _init_timer2
 ---------------------------------------------------------------------------------
 (1) _init_timer2                                          0     0      0       0
 ---------------------------------------------------------------------------------
 (1) _init_config                                          0     0      0       0
                           _init_ssd
 ---------------------------------------------------------------------------------
 (2) _init_ssd                                             0     0      0       0
 ---------------------------------------------------------------------------------
 (1) _display                                              5     5      0     168
                                              6 BANK0      5     5      0
 ---------------------------------------------------------------------------------
 (1) ___lwmod                                              5     1      4    1267
                                             13 BANK0      5     1      4
                            ___lwdiv (ARG)
 ---------------------------------------------------------------------------------
 (1) ___lwdiv                                              7     3      4     666
                                              6 BANK0      7     3      4
 ---------------------------------------------------------------------------------
 Estimated maximum stack depth 2
 ---------------------------------------------------------------------------------
 (Depth) Function   	        Calls       Base Space   Used Autos Params    Refs
 ---------------------------------------------------------------------------------
 (3) _isr                                                  6     6      0     996
                                              0 BANK0      6     6      0
                            ___llmod
                          i1___lwdiv
                          i1___lwmod
 ---------------------------------------------------------------------------------
 (4) i1___lwmod                                            5     1      4     419
                                              7 COMMON     5     1      4
                          i1___lwdiv (ARG)
 ---------------------------------------------------------------------------------
 (4) i1___lwdiv                                            7     3      4     266
                                              0 COMMON     7     3      4
 ---------------------------------------------------------------------------------
 (4) ___llmod                                             10     2      8     311
                                              0 COMMON    10     2      8
 ---------------------------------------------------------------------------------
 Estimated maximum stack depth 4
 ---------------------------------------------------------------------------------

 Call Graph Graphs:

 _main (ROOT)
   ___lwdiv
   ___lwmod
     ___lwdiv (ARG)
   _display
   _init_config
     _init_ssd
   _init_timer2

 _isr (ROOT)
   ___llmod
   i1___lwdiv
   i1___lwmod
     i1___lwdiv (ARG)

 Address spaces:
Name               Size   Autos  Total    Cost      Usage
BANK3               60      0       0       9        0.0%
BITBANK3            60      0       0       8        0.0%
SFR3                 0      0       0       4        0.0%
BITSFR3              0      0       0       4        0.0%
BANK2               60      0       0      11        0.0%
BITBANK2            60      0       0      10        0.0%
SFR2                 0      0       0       5        0.0%
BITSFR2              0      0       0       5        0.0%
BANK1               50      0       0       7        0.0%
BITBANK1            50      0       0       6        0.0%
SFR1                 0      0       0       2        0.0%
BITSFR1              0      0       0       2        0.0%
BANK0               50     12      28       5       50.0%
BITBANK0            50      0       0       4        0.0%
SFR0                 0      0       0       1        0.0%
BITSFR0              0      0       0       1        0.0%
COMMON               E      C       E       1      100.0%
BITCOMMON            E      0       0       0        0.0%
CODE                 0      0       0       0        0.0%
DATA                 0      0      36      12        0.0%
ABS                  0      0      36       3        0.0%
NULL                 0      0       0       0        0.0%
STACK                0      0       0       2        0.0%
EEDATA             100      0       0       0        0.0%


Microchip Technology PIC Macro Assembler V2.20 build 20200408173844 
Symbol Table                                                                                   Wed Jun 10 18:46:29 2020

                      pc 0002                       l23 03A4                       l54 0364  
                     l46 039C                       l94 0384                       fsr 0004  
                    l452 0274                      l462 02F4                      l900 0378  
                    l902 037C                      l920 034C                      l904 0380  
                    l922 035A                      l914 0333                      l906 0381  
                    l924 035E                      l916 033B                      l908 0332  
                    l950 0233                      l918 0348                      l960 024B  
                    l952 0239                      l962 025C                      l954 023C  
                    l970 0270                      l890 0394                      l964 0262  
                    l956 0243                      l948 022F                      l980 02CB  
                    l892 0397                      l966 0263                      l958 0247  
                    l990 02EA                      l982 02CF                      l974 02B9  
                    l894 039D                      l968 026A                      l984 02D3  
                    l976 02C1                      l992 02F0                      l888 0391  
                    l896 03A2                      l986 02DD                      l978 02C4  
                    l898 03A3                      _GIE 005F                      l988 02E3  
                    _PR2 0092                      u600 02C1                      u601 02C0  
                    u530 0239                      u450 035A                      u531 0238  
                    u451 0359                      u620 02D3                      u460 0364  
                    u444 0341                      u621 02D2                      u461 0363  
                    u445 033F                      u550 024B                      u630 02DD  
                    u551 024A                      u631 02DC                      u615 02C5  
                    u545 023D                      u570 025C                      u650 02F0  
                    u571 025B                      u651 02EF                      u635 02D9  
                    u565 024C                      u645 02E4                      u590 0270  
                    u591 026F                      u575 0258                      u585 0264  
                    _isr 0033                      _ssd 0044                      fsr0 0004  
                    indf 0000                     l1050 018F                     l1052 01B5  
                   l1044 014A                     l1054 01D1                     l1046 014F  
                   l1048 0177                     ?_isr 0070                     _PEIE 005E  
                   i1l81 013F              display@data 0029              display@wait 0027  
                   _flag 007C                     _main 014A                     _hour 003C  
                   btemp 007E                     start 0012                    ??_isr 0020  
                  ?_main 0070          __end_of___llmod 022F          __end_of___lwdiv 0275  
                  i1l402 022E          __end_of___lwmod 02F5                    i1l452 02B8  
                  i1l462 032E             ?_init_config 0070                    i1l930 01E6  
                  i1l940 0217                    i1l932 01EF                    i1l942 0220  
                  i1l934 01F3                    i1l926 01DB                    i1l936 01F7  
                  i1l928 01E3                    i1l944 0226                    i1l938 0209  
                  i1l996 0275                    i1l998 0277                    u50_20 0209  
                  u50_21 0208                    u50_25 0205                    _PORTA 0005  
                  _PORTD 0008                    u51_25 0218                    u52_20 0226  
                  u52_21 0225                    u70_20 02A0                    u70_21 029F  
                  u70_25 029C                    u47_20 01E3                    u47_21 01E2  
                  u71_25 02A8                    u72_20 02B4                    u80_20 0053  
                  u72_21 02B3                    u80_21 0052                    u48_25 01E8  
                  u49_20 01F7                    u73_20 02FB                    u81_20 0068  
                  u49_21 01F6                    u73_21 02FA                    u81_21 0067  
                  _TRISA 0085                    _TRISD 0088                    u66_20 027D  
                  u82_20 0114                    u66_21 027C                    u82_21 0113  
                  u74_25 02FF                    u75_20 030D                    u83_20 011E  
                  u75_21 030C                    u83_21 011D                    u67_25 0281  
                  u68_20 028F                    u76_20 0317                    u84_20 0125  
                  u68_21 028E                    u76_21 0316                    u84_21 0123  
                  u76_25 0313                    u85_20 0126                    u69_25 0290  
                  u77_25 031E                    u78_20 032A                    u86_20 0134  
                  u78_21 0329                    u86_21 0133                    u79_20 0037  
                  u79_21 0036             ?_init_timer2 0070             display@digit 002A  
     i1___lwmod@dividend 0079          __end_of_display 0365                    pclath 000A  
                  status 0003                    wtemp0 007E       __size_ofi1___lwdiv 0044  
     __size_ofi1___lwmod 003A          __initialization 0015             __end_of_main 01DB  
                 ??_main 0032         ___llmod@dividend 0074                   i1l1000 027D  
                 i1l1010 02A0                   i1l1002 0280                   i1l1012 02A6  
                 i1l1004 0287                   i1l1014 02A7                   i1l1006 028B  
                 i1l1030 0309                   i1l1022 02F5                   i1l1016 02AE  
                 i1l1008 028F                   i1l1032 030D                   i1l1024 02FB  
                 i1l1040 032A                   i1l1018 02B4                   i1l1034 0317  
                 i1l1026 02FE                   i1l1036 031D                   i1l1028 0305  
                 i1l1060 0038                   i1l1038 0324                   i1l1070 006A  
                 i1l1062 0046                   i1l1072 0081                   i1l1064 0053  
                 i1l1080 00F7                   i1l1056 0033                   i1l1082 0114  
                 i1l1074 00A5                   i1l1066 005B                   i1l1058 0037  
                 i1l1084 011E                   i1l1068 0068                   i1l1076 00BC  
                 i1l1086 0134                   i1l1078 00E0                   i1l1088 013A  
                 _TMR2IE 0461                   _TMR2IF 0061                   _TMR2ON 0092  
              ??___llmod 0078                   _digits 0032                ??___lwdiv 002A  
              ??___lwmod 0031         __end_of_init_ssd 039D                   _minute 0042  
              ??_display 0026        __end_ofi1___lwdiv 02B9        __end_ofi1___lwmod 032F  
                 saved_w 007E  __end_of__initialization 002F           __pcstackCOMMON 0070  
           __pidataBANK0 0385     __size_of_init_config 0008     __size_of_init_timer2 000D  
             __pbssBANK0 003E               __pmaintext 014A               __pintentry 0004  
                _T2CKPS0 0090                  _T2CKPS1 0091                ?_init_ssd 0070  
                ___llmod 01DB                  ___lwdiv 022F                  ___lwmod 02B9  
                __ptext1 0378                  __ptext2 039D                  __ptext3 0391  
                __ptext4 032F                  __ptext5 02B9                  __ptext6 022F  
                __ptext7 0033                  __ptext8 02F5                  __ptext9 0275  
                _display 032F        i1___lwdiv@divisor 0070             __size_of_isr 0117  
      i1___lwdiv@counter 0076     end_of_initialization 002F               ??_init_ssd 0026  
              i1___lwdiv 0275                i1___lwmod 02F5        i1___lwmod@divisor 0077  
      i1___lwmod@counter 007B      start_initialization 0015              __end_of_isr 014A  
             ?i1___lwdiv 0070               ?i1___lwmod 0077          ___llmod@divisor 0070  
        ___llmod@counter 0079               init_fetch0 0365              __pdataBANK0 0032  
          ??_init_config 0026            ??_init_timer2 0026              __pbssCOMMON 007C  
              ___latbits 0002            __pcstackBANK0 0020        __size_of_init_ssd 000C  
       ___lwdiv@dividend 0028                 ?___llmod 0070                 ?___lwdiv 0026  
               ?___lwmod 002D                 ?_display 0070         ___lwdiv@quotient 002A  
            ??i1___lwdiv 0074              ??i1___lwmod 007B      __end_of_init_config 03A5  
    __end_of_init_timer2 0385        interrupt_function 0004         __size_of___llmod 0054  
       __size_of___lwdiv 0046         __size_of___lwmod 003C              _init_config 039D  
       __size_of_display 0036              _init_timer2 0378          ___lwdiv@divisor 0026  
        ___lwdiv@counter 002C                 __ptext10 01DB       i1___lwdiv@dividend 0072  
          __size_of_main 0091                 _init_ssd 0391       i1___lwdiv@quotient 0074  
               isr@count 003E                 init_ram0 0369                 intlevel1 0000  
       ___lwmod@dividend 002F          ___lwmod@divisor 002D          ___lwmod@counter 0031  
